(i__main__
NaiveBayesClassifier
p0
(dp1
S'ham_frequency_vector'
p2
(lp3
I0
aI304
aI19
aI26
aI7
aI8
aI3
aI573
aI5
aI2
aI1
aI21
aI5
aI5
aI5
aI0
aI0
aI5
aI2
aI91
aI4
aI23
aI9
aI0
aI895
aI59
aI0
aI0
aI13
aI33
aI0
aI12
aI15
aI0
aI5
aI6
aI0
aI0
aI117
aI19
aI0
aI0
aI0
aI28
aI0
aI6
aI18
aI6
aI1
aI6
aI1
aI5
aI9
aI1
aI99
aI10
aI30
aI3
aI49
aI5
aI41
aI30
aI14
aI14
aI22
aI23
aI9
aI0
aI1
aI9
aI23
aI1
aI26
aI40
aI18
aI2
aI0
aI3
aI12
aI9
aI276
aI1
aI0
aI22
aI9
aI30
aI330
aI46
aI5
aI23
aI13
aI5
aI0
aI73
aI9
aI0
aI70
aI3
aI62
aI109
aI69
aI7
aI9
aI9
aI0
aI6
aI6
aI262
aI7
aI34
aI109
aI8
aI15
aI54
aI10
aI31
aI1202
aI5
aI10
aI6
aI25
aI8
aI7
aI157
aI54
aI6
aI7
aI6
aI7
aI0
aI31
aI9
aI6
aI0
aI1
aI0
aI12
aI8
aI28
aI4
aI0
aI5
aI0
aI12
aI5
aI4
aI13
aI11
aI0
aI10
aI0
aI7
aI5
aI35
aI0
aI93
aI64
aI5
aI47
aI39
aI4
aI0
aI21
aI15
aI11
aI3
aI5
aI14
aI0
aI182
aI0
aI28
aI8
aI54
aI7
aI36
aI103
aI10
aI49
aI6
aI14
aI117
aI8
aI37
aI3
aI0
aI50
aI13
aI1
aI0
aI27
aI7
aI179
aI5
aI6
aI5
aI69
aI0
aI2
aI9
aI7
aI7
aI20
aI13
aI12
aI6
aI3
aI0
aI0
aI7
aI12
aI15
aI49
aI11
aI27
aI3
aI11
aI577
aI4
aI0
aI13
aI446
aI129
aI5
aI0
aI0
aI0
aI5
aI0
aI21
aI14
aI12
aI0
aI0
aI17
aI2
aI17
aI6
aI75
aI25
aI384
aI18
aI9
aI0
aI5
aI0
aI51
aI0
aI0
aI0
aI42
aI16
aI0
aI8
aI0
aI29
aI115
aI0
aI5
aI7
aI0
aI88
aI22
aI1
aI12
aI5
aI7
aI0
aI8
aI0
aI3
aI7
aI6
aI0
aI24
aI9
aI4
aI0
aI15
aI118
aI5
aI6
aI0
aI75
aI5
aI182
aI93
aI2
aI2
aI1
aI226
aI12
aI247
aI51
aI22
aI214
aI6
aI9
aI21
aI16
aI12
aI15
aI14
aI25
aI269
aI55
aI184
aI1
aI10
aI5
aI0
aI0
aI0
aI0
aI22
aI10
aI8
aI5
aI17
aI16
aI17
aI5
aI1
aI1
aI0
aI0
aI15
aI38
aI0
aI55
aI9
aI9
aI71
aI8
aI12
aI56
aI9
aI5
aI6
aI30
aI6
aI0
aI5
aI0
aI0
aI0
aI0
aI4
aI193
aI81
aI0
aI0
aI0
aI5
aI0
aI128
aI27
aI200
aI0
aI1
aI0
aI170
aI26
aI4
aI164
aI10
aI44
aI42
aI39
aI10
aI3
aI1
aI14
aI0
aI0
aI0
aI0
aI99
aI0
aI8
aI917
aI15
aI5
aI24
aI9
aI9
aI0
aI9
aI15
aI0
aI0
aI434
aI9
aI31
aI0
aI246
aI21
aI12
aI126
aI6
aI9
aI4
aI11
aI25
aI4
aI1
aI7
aI0
aI6
aI6
aI0
aI2
aI18
aI0
aI0
aI36
aI7
aI35
aI119
aI30
aI1
aI156
aI0
aI6
aI12
aI27
aI17
aI5
aI6
aI1
aI12
aI13
aI63
aI68
aI5
aI25
aI12
aI0
aI70
aI404
aI0
aI1
aI15
aI79
aI8
aI41
aI4
aI8
aI0
aI7
aI0
aI275
aI0
aI6
aI8
aI11
aI4
aI0
aI5
aI6
aI25
aI40
aI16
aI29
aI6
aI104
aI0
aI6
aI60
aI122
aI9
aI23
aI8
aI5
aI1
aI9
aI70
aI42
aI16
aI4
aI0
aI32
aI327
aI4
aI0
aI22
aI7
aI2
aI5
aI153
aI27
aI0
aI9
aI1069
aI14
aI0
aI7
aI10
aI15
aI61
aI6
aI11
aI69
aI30
aI7
aI11
aI8
aI1
aI1
aI142
aI0
aI174
aI16
aI54
aI17
aI13
aI11
aI0
aI7
aI0
aI34
aI0
aI5
aI0
aI6
aI20
aI12
aI0
aI62
aI109
aI9
aI61
aI0
aI1
aI26
aI0
aI0
aI0
aI21
aI0
aI5
aI0
aI7
aI7
aI77
aI36
aI9
aI46
aI10
aI2
aI6
aI14
aI63
aI5
aI36
aI24
aI10
aI41
aI11
aI1
aI103
aI0
aI7
aI12
aI0
aI0
aI15
aI339
aI53
aI10
aI5
aI116
aI29
aI90
aI182
aI87
aI5
aI14
aI36
aI56
aI3
aI33
aI0
aI50
aI5
aI4
aI3
aI170
aI3
aI7
aI12
aI13
aI7
aI6
aI5
aI34
aI11
aI0
aI1
aI192
aI2
aI253
aI0
aI1
aI43
aI0
aI6
aI0
aI26
aI7
aI46
aI7
aI9
aI0
aI21
aI6
aI10
aI122
aI91
aI7
aI21
aI56
aI93
aI259
aI0
aI63
aI33
aI34
aI1
aI0
aI0
aI11
aI9
aI2
aI0
aI10
aI0
aI296
aI0
aI9
aI17
aI13
aI0
aI12
aI5
aI0
aI0
aI60
aI0
aI32
aI10
aI0
aI7
aI40
aI2
aI11
aI11
aI6
aI22
aI631
aI5
aI13
aI2
aI20
aI88
aI0
aI16
aI35
aI28
aI14
aI31
aI39
aI0
aI33
aI47
aI0
aI5
aI12
aI0
aI0
aI7
aI993
aI10
aI0
aI9
aI79
aI0
aI89
aI118
aI29
aI2
aI51
aI3
aI28
aI11
aI8
aI4
aI20
aI5
aI8
aI111
aI0
aI5
aI9
aI5
aI3
aI1529
aI11
aI0
aI7
aI0
aI0
aI20
aI0
aI0
aI6
aI5
aI77
aI0
aI10
aI127
aI0
aI78
aI6
aI9
aI4
aI10
aI29
aI5
aI8
aI0
aI5
aI11
aI0
aI0
aI0
aI54
aI34
aI52
aI11
aI2
aI456
aI5
aI73
aI9
aI0
aI5
aI0
aI5
aI2
aI12
aI75
aI14
aI3
aI7
aI0
aI597
aI19
aI105
aI6
aI0
aI5
aI6
aI5
aI2
aI12
aI5
aI40
aI1
aI12
aI0
aI0
aI0
aI22
aI60
aI5
aI0
aI0
aI27
aI1
aI2
aI91
aI37
aI28
aI0
aI0
aI32
aI1
aI0
aI0
aI254
aI5
aI63
aI0
aI6
aI242
aI0
aI46
aI27
aI4
aI16
aI131
aI5
aI14
aI57
aI59
aI8
aI15
aI3
aI43
aI0
aI11
aI306
aI0
aI5
aI5
aI17
aI0
aI9
aI0
aI4
aI64
aI1
aI2
aI0
aI7
aI0
aI20
aI10
aI136
aI33
aI54
aI2
aI0
aI2
aI38
aI95
aI10
aI6
aI17
aI14
aI471
aI185
aI1
aI13
aI13
aI11
aI96
aI6
aI0
aI3
aI11
aI17
aI7
aI0
aI22
aI0
aI0
aI17
aI22
aI28
aI30
aI4
aI6
aI14
aI13
aI1
aI18
aI12
aI0
aI0
aI15
aI17
aI39
aI3
aI0
aI104
aI101
aI5
aI0
aI9
aI6
aI7
aI226
aI12
aI2
aI8
aI12
aI40
aI277
aI10
aI10
aI15
aI9
aI28
aI0
aI2
aI8
aI8
aI0
aI48
aI9
aI0
aI11
aI6
aI0
aI28
aI0
aI268
aI68
aI177
aI10
aI16
aI10
aI5
aI6
aI3
aI137
aI42
aI0
aI1
aI10
aI13
aI61
aI30
aI49
aI7
aI5
aI74
aI9
aI5
aI0
aI37
aI0
aI2
aI0
aI10
aI0
aI0
aI0
aI254
aI7
aI29
aI8
aI5
aI39
aI73
aI190
aI12
aI16
aI49
aI54
aI0
aI29
aI42
aI5
aI5
aI68
aI0
aI31
aI1
aI0
aI0
aI0
aI9
aI2
aI3
aI39
aI11
aI101
aI20
aI0
aI5
aI5
aI10
aI91
aI17
aI27
aI20
aI11
aI6
aI10
aI7
aI0
aI5
aI1
aI10
aI20
aI9
aI14
aI0
aI9
aI20
aI10
aI1
aI385
aI0
aI11
aI0
aI11
aI11
aI0
aI262
aI78
aI0
aI0
aI77
aI20
aI7
aI0
aI0
aI144
aI0
aI8
aI0
aI75
aI0
aI5
aI9
aI23
aI12
aI0
aI0
aI76
aI7
aI6
aI278
aI0
aI7
aI6
aI44
aI4
aI0
aI0
aI9
aI0
aI323
aI8
aI0
aI33
aI0
aI4
aI0
aI6
aI0
aI0
aI15
aI0
aI13
aI12
aI57
aI20
aI0
aI8
aI13
aI0
aI5
aI50
aI5
aI16
aI0
aI6
aI3
aI846
aI223
aI7
aI5
aI9
aI0
aI79
aI66
aI5
aI23
aI0
aI0
aI70
aI516
aI45
aI6
aI14
aI6
aI24
aI10
aI48
aI32
aI2
aI314
aI18
aI5
aI2
aI0
aI32
aI0
aI8
aI0
aI28
aI0
aI30
aI5
aI11
aI19
aI16
aI59
aI2
aI0
aI0
aI7
aI57
aI16
aI0
aI15
aI2
aI8
aI6
aI18
aI69
aI8
aI7
aI4
aI13
aI64
aI27
aI0
aI0
aI187
aI0
aI0
aI0
aI0
aI0
aI5
aI17
aI5
aI10
aI20
aI1691
aI0
aI0
aI1
aI11
aI103
aI6
aI6
aI3
aI0
aI16
aI5
aI6
aI21
aI12
aI12
aI23
aI6
aI4
aI0
aI0
aI6
aI43
aI6
aI5319
aI5
aI118
aI17
aI670
aI18
aI5
aI0
aI8
aI5
aI0
aI6
aI51
aI67
aI6
aI38
aI13
aI2
aI0
aI22
aI0
aI3
aI0
aI0
aI0
aI7
aI306
aI23
aI5
aI5
aI6
aI1
aI14
aI16
aI16
aI0
aI6
aI28
aI0
aI0
aI65
aI4
aI0
aI0
aI13
aI27
aI24
aI0
aI5
aI2
aI42
aI111
aI11
aI4
aI0
aI6
aI11
aI10
aI24
aI6
aI6
aI43
aI25
aI11
aI0
aI17
aI21
aI0
aI0
aI116
aI7
aI0
aI0
aI112
aI32
aI4
aI39
aI35
aI5
aI2
aI0
aI18
aI5
aI10
aI5
aI72
aI14
aI62
aI0
aI0
aI0
aI10
aI16
aI5
aI50
aI0
aI7
aI3
aI35
aI6
aI0
aI110
aI8
aI0
aI13
aI0
aI9
aI276
aI15
aI0
aI9
aI8
aI18
aI3
aI6
aI269
aI459
aI32
aI17
aI241
aI8
aI299
aI5
aI18
aI0
aI6
aI1
aI173
aI3
aI87
aI470
aI14
aI0
aI1
aI37
aI6
aI2
aI16
aI0
aI18
aI583
aI0
aI10
aI33
aI351
aI455
aI14
aI1
aI9
aI0
aI0
aI17
aI28
aI2
aI0
aI0
aI13
aI0
aI11
aI9
aI1
aI0
aI5
aI0
aI0
aI8
aI9
aI1741
aI72
aI0
aI29
aI0
aI1012
aI0
aI68
aI36
aI6
aI47
aI1
aI0
aI6
aI0
aI8
aI5
aI13
aI0
aI14
aI0
aI0
aI20
aI24
aI21
aI1
aI190
aI134
aI5
aI0
aI0
aI5
aI0
aI95
aI2
aI0
aI165
aI13
aI0
aI0
aI9
aI16
aI0
aI0
aI118
aI96
aI4
aI0
aI1
aI6
aI7
aI4
aI19
aI24
aI0
aI5
aI14
aI0
aI283
aI57
aI7
aI6
aI0
aI11
aI0
aI10
aI18
aI267
aI9
aI81
aI0
aI51
aI22
aI5
aI6
aI0
aI0
aI87
aI0
aI10
aI12
aI300
aI392
aI0
aI8
aI3
aI83
aI0
aI6
aI7
aI1
aI20
aI0
aI5
aI17
aI0
aI84
aI5
aI9
aI5
aI70
aI70
aI0
aI24
aI16
aI15
aI12
aI0
aI0
aI0
aI0
aI0
aI24
aI47
aI0
aI5
aI28
aI368
aI8
aI12
aI15
aI22
aI0
aI7
aI195
aI28
aI5
aI0
aI61
aI1
aI213
aI6
aI10
aI0
aI13
aI1031
aI1
aI0
aI19
aI32
aI37
aI26
aI9
aI22
aI12
aI13
aI0
aI8
aI0
aI66
aI0
aI11
aI72
aI9
aI11
aI5
aI21
aI0
aI59
aI7
aI16
aI3
aI0
aI6
aI5
aI2
aI8
aI0
aI1
aI0
aI111
aI9
aI60
aI10
aI0
aI5
aI14
aI165
aI59
aI0
aI0
aI5
aI0
aI0
aI58
aI0
aI11
aI37
aI6
aI0
aI0
aI0
aI208
aI9
aI1
aI34
aI16
aI5
aI0
aI1
aI0
aI0
aI0
aI433
aI28
aI94
aI8
aI0
aI34
aI2194
aI24
aI271
aI6
aI8
aI5
aI7
aI10
aI9
aI11
aI0
aI18
aI7
aI0
aI19
aI3
aI5
aI45
aI5
aI10
aI120
aI0
aI17
aI0
aI8
aI0
aI24
aI28
aI17
aI0
aI38
aI55
aI3
aI0
aI0
aI26
aI6
aI61
aI20
aI0
aI0
aI8
aI5
aI0
aI6
aI10
aI58
aI0
aI0
aI0
aI109
aI17
aI29
aI18
aI7
aI7
aI11
aI28
aI16
aI48
aI0
aI10
aI7
aI6
aI4
aI94
aI11
aI16
aI10
aI1
aI0
aI0
aI18
aI0
aI5
aI23
aI3
aI11
aI10
aI0
aI0
aI740
aI0
aI0
aI1
aI0
aI0
aI4
aI10
aI5
aI39
aI9
aI8
aI9
aI1
aI13
aI29
aI23
aI65
aI1322
aI0
aI4
aI13
aI98
aI0
aI6
aI0
aI12
aI5
aI0
aI13
aI25
aI31
aI5
aI5
aI1
aI0
aI73
aI1
aI0
aI37
aI6
aI7
aI9
aI0
aI42
aI13
aI26
aI63
aI5
aI2
aI143
aI5
aI0
aI0
aI0
aI0
aI39
aI3
aI7
aI49
aI5
aI15
aI5
aI0
aI0
aI114
aI5
aI305
aI29
aI15
aI14
aI7
aI0
aI0
aI3
aI16
aI1
aI5
aI2
aI2
aI0
aI5
aI5
aI58
aI6
aI60
aI2
aI19
aI0
aI14
aI0
aI14
aI21
aI25
aI0
aI5
aI5
aI28
aI43
aI9
aI123
aI6
aI0
aI12
aI4
aI24
aI16
aI4
aI9
aI14
aI3
aI6
aI1
aI6
aI0
aI13
aI108
aI18
aI6
aI1
aI24
aI24
aI56
aI15
aI9
aI98
aI84
aI129
aI307
aI2
aI3
aI0
aI23
aI1
aI18
aI0
aI133
aI17
aI11
aI5
aI9
aI211
aI34
aI0
aI2
aI0
aI8
aI12
aI0
aI0
aI54
aI76
aI124
aI7
aI14
aI1
aI17
aI48
aI0
aI27
aI5
aI2
aI9
aI5
aI15
aI432
aI0
aI0
aI26
aI0
aI12
aI0
aI8
aI19
aI8
aI0
aI160
aI16
aI8
aI28
aI5
aI0
aI0
aI5
aI21
aI4
aI7
aI0
aI9
aI15
aI45
aI14
aI15
aI1388
aI12
aI6
aI8
aI1
aI6
aI18
aI8
aI11
aI33
aI10
aI1
aI41
aI32
aI2
aI8
aI7
aI58
aI0
aI26
aI30
aI0
aI53
aI5
aI5
aI14
aI21
aI8
aI34
aI52
aI6
aI256
aI4
aI0
aI14
aI35
aI6
aI9
aI0
aI39
aI0
aI13
aI2
aI5
aI23
aI14
aI1
aI26
aI0
aI42
aI0
aI9
aI1
aI13
aI0
aI6
aI103
aI5
aI0
aI1
aI8
aI9
aI1
aI6
aI27
aI93
aI15
aI14
aI0
aI16
aI10
aI0
aI0
aI7
aI0
aI15
aI41
aI470
aI16
aI50
aI6
aI13
aI0
aI2
aI9
aI6
aI50
aI61
aI82
aI7
aI6
aI0
aI142
aI5
aI3
aI2
aI9
aI6
aI509
aI5
aI147
aI8
aI5
aI0
aI4
aI6
aI7
aI9
aI19
aI27
aI55
aI33
aI15
aI21
aI6
aI30
aI10
aI0
aI5
aI6
aI9
aI7
aI13
aI19
aI23
aI54
aI27
aI0
aI0
aI62
aI12
aI1409
aI5
aI5
aI11
aI7
aI0
aI142
aI11
aI18
aI48
aI27
aI0
aI352
aI9
aI12
aI0
aI24
aI0
aI8
aI9
aI0
aI2
aI7
aI5
aI10
aI5
aI0
aI0
aI269
aI0
aI0
aI0
aI84
aI10
aI6
aI236
aI78
aI0
aI2
aI46
aI5
aI15
aI5
aI1
aI0
aI134
aI0
aI0
aI6
aI5
aI90
aI1374
aI5
aI14
aI5
aI5
aI22
aI24
aI1
aI1
aI0
aI198
aI5
aI1
aI48
aI17
aI439
aI4
aI14
aI91
aI126
aI0
aI5
aI72
aI0
aI0
aI31
aI0
aI942
aI5
aI12
aI13
aI0
aI9
aI6
aI15
aI0
aI684
aI5
aI29
aI0
aI159
aI16
aI3
aI0
aI14
aI2
aI18
aI10
aI0
aI6
aI32
aI0
aI5
aI7
aI36
aI7
aI87
aI5
aI0
aI27
aI144
aI3
aI13
aI5
aI6
aI11
aI1463
aI86
aI9
aI3
aI533
aI19
aI11
aI14
aI0
aI5
aI32
aI47
aI2
aI36
aI9
aI107
aI10
aI17
aI31
aI94
aI2
aI2
aI33
aI63
aI2
aI8
aI5
aI5
aI38
aI100
aI9
aI0
aI5
aI12
aI22
aI31
aI3
aI7
aI0
aI16
aI6
aI15
aI16
aI230
aI0
aI10
aI5
aI5
aI16
aI0
aI0
aI14
aI1
aI9
aI10
aI6
aI0
aI1
aI81
aI234
aI6
aI0
aI0
aI1485
aI2
aI48
aI19
aI0
aI63
aI0
aI0
aI17
aI0
aI13
aI2
aI0
aI20
aI0
aI932
aI0
aI1
aI0
aI151
aI6
aI7
aI6
aI9
aI0
aI9
aI77
aI17
aI0
aI0
aI21
aI0
aI11
aI196
aI32
aI0
aI11
aI0
aI5
aI14
aI27
aI5
aI74
aI12
aI77
aI10
aI9
aI3
aI7
aI44
aI0
aI9
aI0
aI78
aI25
aI0
aI127
aI2
aI0
aI1
aI59
aI115
aI0
aI0
aI5
aI43
aI23
aI0
aI13
aI7
aI52
aI136
aI0
aI2
aI0
aI6
aI13
aI14
aI287
aI14
aI0
aI0
aI10
aI396
aI3
aI0
aI9
aI51
aI21
aI55
aI106
aI9
aI27
aI9
aI2067
aI34
aI118
aI14
aI12
aI13
aI33
aI54
aI6
aI0
aI1
aI8
aI0
aI15
aI6
aI6
aI1
aI18
aI9
aI11
aI61
aI5
aI101
aI33
aI24
aI9
aI0
aI5
aI57
aI16
aI0
aI29
aI34
aI8
aI10
aI0
aI3
aI4
aI34
aI0
aI5
aI6
aI5
aI40
aI0
aI0
aI0
aI14
aI8
aI5
aI0
aI8
aI56
aI32
aI111
aI9
aI5
aI5
aI2
aI11
aI16
aI9
aI13
aI25
aI0
aI0
aI5
aI23
aI7
aI34
aI25
aI6
aI0
aI4
aI10
aI178
aI7
aI7
aI31
aI85
aI64
aI5
aI40
aI4
aI5
aI0
aI0
aI0
aI27
aI0
aI0
aI0
aI3
aI6
aI0
aI30
aI0
aI0
aI0
aI443
aI56
aI16
aI0
aI9
aI7
aI21
aI0
aI7
aI28
aI90
aI90
aI76
aI70
aI49
aI44
aI8
aI16
aI8
aI9
aI14
aI0
aI5
aI0
aI10
aI5
aI16
aI5
aI93
aI6
aI0
aI5
aI0
aI22
aI19
aI64
aI0
aI14
aI27
aI54
aI9
aI25
aI14
aI30
aI5
aI8
aI43
aI0
aI15
aI29
aI0
aI2
aI15
aI5
aI7
aI68
aI6
aI0
aI1
aI5
aI0
aI12
aI7
aI6
aI8
aI8
aI8
aI1
aI16
aI0
aI0
aI258
aI0
aI0
aI53
aI0
aI8
aI3
aI19
aI0
aI24
aI4
aI44
aI7
aI9
aI0
aI16
aI15
aI7
aI13
aI0
aI4
aI8
aI7
aI5
aI166
aI0
aI1
aI0
aI6
aI62
aI6
aI81
aI7
aI2
aI97
aI0
aI15
aI0
aI53
aI238
aI0
aI64
aI5
aI0
aI10
aI57
aI9
aI34
aI70
aI1
aI6
aI17
aI6
aI11
aI11
aI11
aI21
aI0
aI81
aI13
aI57
aI202
aI8
aI3
aI5
aI17
aI0
aI5
aI35
aI9
aI154
aI30
aI22
aI0
aI468
aI1
aI1
aI2
aI6
aI53
aI2
aI13
aI0
aI86
aI0
aI5
aI33
aI8
aI115
aI14
aI2
aI0
aI24
aI0
aI18
aI1
aI8
aI9
aI0
aI5
aI34
aI0
aI28
aI220
aI4
aI0
aI0
aI12
aI195
aI3
aI0
aI6
aI6
aI0
aI8
aI28
aI2
aI14
aI0
aI1
aI0
aI8
aI49
aI5
aI44
aI56
aI1
aI0
aI0
aI6
aI8
aI0
aI7
aI10
aI170
aI22
aI8
aI6
aI35
aI19
aI17
aI12
aI6
aI1
aI6
aI5
aI7
aI0
aI7
aI4
aI5
aI0
aI26
aI8
aI13
aI0
aI19
aI7
aI28
aI13
aI4
aI0
aI6
aI2
aI0
aI1
aI44
aI44
aI0
aI24
aI12
aI75
aI0
aI81
aI10
aI12
aI5
aI291
aI31
aI30
aI2
aI153
aI0
aI0
aI580
aI89
aI11
aI2
aI0
aI0
aI118
aI5
aI0
aI6
aI0
aI22
aI14
aI0
aI1
aI34
aI48
aI268
aI5
aI9
aI22
aI5
aI11
aI23
aI10
aI5
aI0
aI41
aI0
aI0
aI0
aI57
aI0
aI2
aI0
aI9
aI15
aI7
aI226
aI5
aI0
aI0
aI8
aI78
aI13
aI0
aI10
aI6
aI80
aI12
aI948
aI122
aI3
aI5
aI16
aI37
aI393
aI0
aI44
aI15
aI0
aI0
aI1
aI3
aI387
aI18
aI6
aI28
aI1
aI5
aI7
aI17
aI74
aI411
aI0
aI2
aI70
aI5
aI1
aI8
aI6
aI26
aI73
aI93
aI8
aI11
aI5
aI9
aI68
aI0
aI96
aI427
aI5
aI0
aI9
aI0
aI0
aI0
aI83
aI34
aI70
aI0
aI17
aI18
aI3
aI3
aI7
aI18
aI74
aI19
aI0
aI32
aI11
aI18
aI29
aI5
aI0
aI10
aI0
aI122
aI6
aI38
aI1
aI8
aI14
aI14
aI7
aI10
aI0
aI15
aI17
aI11
aI5
aI6
aI5
aI82
aI0
aI9
aI12
aI17
aI12
aI12
aI7
aI262
aI10
aI0
aI19
aI6
aI5
aI30
aI29
aI2
aI0
aI242
aI313
aI1
aI32
aI37
aI23
aI0
aI5
aI7
aI0
aI5
aI6
aI0
aI33
aI650
aI7
aI224
aI20
aI37
aI0
aI0
aI277
aI0
aI26
aI5
aI1123
aI18
aI0
aI0
aI2
aI13
aI19
aI28
aI1
aI9
aI0
aI1
aI8
aI6
aI8
aI8
aI2
aI120
aI6
aI51
aI4
aI8
aI6
aI11
aI14
aI7
aI123
aI16
aI0
aI17
aI66
aI34
aI6
aI10
aI12
aI9
aI6
aI0
aI406
aI55
aI0
aI6
aI40
aI115
aI3
aI7
aI23
aI0
aI67
aI45
aI1
aI11
aI22
aI8
aI0
aI0
aI0
aI58
aI0
aI15
aI3
aI2
aI20
aI0
aI27
aI7
aI73
aI155
aI0
aI14
aI79
aI26
aI6
aI7
aI0
aI0
aI146
aI19
aI30
aI31
aI5
aI72
aI0
aI12
aI0
aI10
aI3
aI7
aI10
aI6
aI0
aI0
aI86
aI91
aI66
aI0
aI46
aI6
aI6
aI0
aI83
aI15
aI5
aI26
aI0
aI302
aI3
aI3
aI60
aI12
aI5
aI224
aI15
aI1
aI5
aI0
aI231
aI2
aI80
aI44
aI0
aI6
aI415
aI2
aI11
aI26
aI15
aI59
aI42
aI3
aI729
aI30
aI5
aI160
aI0
aI0
aI0
aI0
aI0
aI151
aI17
aI7
aI25
aI18
aI0
aI0
aI1
aI0
aI1
aI20
aI84
aI3
aI0
aI58
aI3
aI0
aI0
aI2
aI10
aI54
aI26
aI0
aI5
aI2
aI0
aI0
aI45
aI383
aI4
aI1
aI8
aI10
aI6
aI0
aI7
aI7
aI0
aI0
aI0
aI124
aI292
aI60
aI0
aI7
aI5
aI3
aI40
aI113
aI82
aI6
aI8
aI14
aI0
aI1
aI0
aI9
aI36
aI0
aI9
aI5
aI168
aI27
aI7
aI5
aI35
aI0
aI1
aI11
aI0
aI272
aI19
aI8
aI29
aI20
aI186
aI0
aI0
aI7
aI0
aI4
aI1
aI35
aI0
aI13
aI176
aI1
aI5
aI0
aI8
aI3
aI13
aI3
aI3
aI3580
aI6
aI0
aI7
aI34
aI46
aI0
aI9
aI2
aI13
aI5
aI26
aI33
aI13
aI16
aI0
aI279
aI8
aI43
aI9
aI2
aI41
aI24
aI8
aI9
aI1
aI25
aI1
aI16
aI0
aI15
aI6
aI6
aI35
aI0
aI0
aI0
aI270
aI20
aI408
aI31
aI5
aI5
aI0
aI21
aI6
aI0
aI4
aI25
aI13
aI19
aI0
aI5
aI6
aI205
aI0
aI12
aI218
aI4
aI1
aI0
aI0
aI9
aI10
aI8
aI13
aI0
aI26
aI0
aI206
aI1
aI0
aI0
aI13
aI1
aI5
aI38
aI549
aI11
aI0
aI7
aI0
aI0
aI6
aI0
aI0
aI2
aI6
aI12
aI32
aI6
aI10
aI7
aI621
aI9
aI18
aI5
aI5
aI8
aI9
aI1
aI0
aI1056
aI12
aI8
aI21
aI12
aI5
aI71
aI8
aI69
aI0
aI29
aI11
aI1
aI7
aI153
aI34
aI17
aI0
aI5
aI0
aI45
aI80
aI6
aI0
aI4
aI12
aI35
aI0
aI179
aI0
aI22
aI7
aI5
aI15
aI13
aI15
aI97
aI6
aI0
aI18
aI19
aI11
aI0
aI41
aI9
aI179
aI20
aI0
aI38
aI8
aI6
aI199
aI829
aI0
aI55
aI0
aI8
aI19
aI6
aI9
aI5
aI5
aI8
aI5
aI0
aI5
aI20
aI24
aI16
aI3
aI0
aI78
aI0
aI6
aI0
aI5
aI18
aI27
aI15
aI7
aI9
aI0
aI9
aI19
aI2
aI0
aI97
aI2
aI0
aI86
aI111
aI0
aI0
aI0
aI0
aI6
aI41
aI0
aI24
aI36
aI9
aI137
aI42
aI2
aI0
aI12
aI6
aI0
aI1
aI9
aI8
aI577
aI12
aI24
aI177
aI9
aI141
aI6
aI48
aI0
aI1
aI66
aI14
aI23
aI4
aI0
aI0
aI0
aI0
aI5
aI5
aI8
aI7
aI301
aI18
aI4
aI2
aI26
aI102
aI0
aI3
aI94
aI9
aI0
aI106
aI0
aI7
aI5
aI0
aI0
aI6
aI55
aI0
aI0
aI0
aI7
aI0
aI0
aI0
aI7
aI30
aI0
aI591
aI0
aI39
aI9
aI5
aI0
aI17
aI14
aI8
aI2
aI0
aI7
aI80
aI40
aI0
aI6
aI12
aI69
aI0
aI0
aI236
aI5
aI20
aI0
aI8
aI125
aI6
aI2
aI10
aI6
aI410
aI66
aI0
aI1
aI7
aI131
aI298
aI0
aI6
aI67
aI103
aI7
aI1
aI8
aI0
aI0
aI1
aI0
aI0
aI2
aI23
aI5
aI1
aI12
aI6
aI91
aI0
aI28
aI103
aI281
aI86
aI1
aI53
aI972
aI7
aI0
aI24
aI0
aI0
aI8
aI119
aI7
aI11
aI66
aI31
aI0
aI0
aI1
aI9
aI10
aI3
aI2
aI11
aI6
aI7
aI6
aI0
aI0
aI5
aI667
aI156
aI19
aI24
aI9
aI2
aI14
aI0
aI29
aI33
aI57
aI33
aI0
aI22
aI20
aI101
aI16
aI0
aI1110
aI14
aI0
aI4
aI15
aI0
aI2
aI33
aI0
aI35
aI33
aI370
aI6
aI11
aI12
aI53
aI21
aI5
aI9
aI0
aI6
aI15
aI54
aI20
aI92
aI31
aI0
aI100
aI190
aI12
aI7
aI43
aI150
aI20
aI58
aI0
aI9
aI150
aI6
aI5
aI787
aI0
aI8
aI0
aI3
aI39
aI0
aI0
aI7
aI0
aI352
aI0
aI2173
aI5
aI58
aI68
aI46
aI12
aI48
aI14
aI1
aI8
aI0
aI9
aI0
aI25
aI5
aI5
aI9
aI0
aI0
aI0
aI7
aI0
aI151
aI57
aI28
aI1
aI0
aI0
aI34
aI7
aI0
aI7
aI8
aI27
aI0
aI0
aI50
aI0
aI5
aI11
aI158
aI20
aI6
aI5
aI15
aI5
aI0
aI0
aI0
aI0
aI6
aI561
aI6
aI163
aI0
aI14
aI0
aI20
aI0
aI44
aI7
aI0
aI684
aI271
aI16
aI1
aI85
aI10
aI39
aI37
aI8
aI46
aI14
aI99
aI29
aI0
aI1
aI16
aI26
aI15
aI12
aI55
aI0
aI70
aI7
aI11
aI6
aI1366
aI0
aI6
aI53
aI0
aI17
aI126
aI65
aI413
aI0
aI22
aI0
aI0
aI20
aI0
aI22
aI63
aI8
aI16
aI0
aI36
aI54
aI1
aI1
aI5
aI163
aI9
aI7
aI0
aI7
aI0
aI32
aI5
aI807
aI67
aI91
aI16
aI13
aI0
aI41
aI7
aI0
aI5
aI0
aI0
aI0
aI29
aI9
aI0
aI5
aI6
aI11
aI9
aI5
aI0
aI0
aI85
aI4
aI0
aI0
aI0
aI127
aI1
aI13
aI0
aI12
aI3
aI0
aI5
aI183
aI6
aI8
aI0
aI0
aI0
aI0
aI0
aI7
aI0
aI0
aI5
aI0
aI12
aI0
aI6
aI6
aI0
aI0
aI1854
aI0
aI4
aI3
aI8
aI10
aI0
aI0
aI20
aI1
aI1
aI38
aI9
aI2
aI30
aI21
aI8
aI229
aI18
aI0
aI14
aI1
aI5
aI41
aI1
aI8
aI38
aI20
aI5
aI3
aI14
aI7
aI21
aI0
aI8
aI20
aI19
aI9
aI21
aI39
aI0
aI20
aI0
aI5
aI0
aI7
aI6
aI28
aI120
aI37
aI0
aI10
aI0
aI2
aI7
aI30
aI6
aI9
aI0
aI13
aI7
aI0
aI5
aI0
aI1
aI2
aI0
aI5
aI109
aI54
aI77
aI41
aI21
aI553
aI126
aI9
aI7
aI59
aI26
aI0
aI21
aI7
aI6
aI5
aI35
aI0
aI0
aI91
aI66
aI24
aI0
aI9
aI0
aI28
aI20
aI9
aI5
aI8
aI5
aI30
aI0
aI7
aI12
aI6
aI0
aI12
aI8
aI1
aI0
aI29
aI58
aI11
aI0
aI0
aI7
aI0
aI42
aI18
aI0
aI0
aI0
aI10
aI9
aI33
aI28
aI138
aI25
aI16
aI0
aI12
aI0
aI135
aI6
aI0
aI7
aI12
aI18
aI22
aI1057
aI8
aI2
aI7
aI15
aI1
aI23
aI0
aI6
aI0
aI17
aI77
aI8
aI0
aI0
aI28
aI0
aI43
aI95
aI126
aI15
aI5
aI18
aI33
aI0
aI8
aI70
aI0
aI0
aI8
aI7
aI0
aI11
aI1
aI24
aI0
aI0
aI39
aI110
aI4
aI6
aI0
aI1
aI5
aI3
aI21
aI9
aI93
aI46
aI3
aI0
aI1
aI1
aI0
aI22
aI34
aI3
aI22
aI12
aI1
aI2
aI879
aI6
aI42
aI8
aI24
aI5
aI0
aI38
aI22
aI10
aI73
aI10
aI20
aI0
aI16
aI0
aI10
aI6
aI7
aI0
aI0
aI55
aI23
aI137
aI0
aI13
aI19
aI0
aI6
aI62
aI0
aI17
aI0
aI22
aI1
aI129
aI1
aI5
aI8
aI0
aI0
aI2
aI11
aI2
aI0
aI631
aI5
aI25
aI24
aI48
aI1
aI0
aI87
aI29
aI0
aI4
aI17
aI41
aI27
aI7
aI131
aI5
aI12
aI5
aI32
aI0
aI2
aI8
aI132
aI229
aI29
aI20
aI37
aI5
aI171
aI62
aI0
aI5
aI2
aI88
aI28
aI12
aI1
aI1
aI0
aI0
aI10
aI7
aI4
aI169
aI0
aI15
aI15
aI0
aI10
aI267
aI0
aI31
aI6
aI44
aI0
aI0
aI33
aI21
aI38
aI6
aI15
aI6
aI0
aI59
aI52
aI1
aI7
aI10
aI0
aI9
aI25
aI118
aI1
aI28
aI0
aI0
aI1
aI36
aI4
aI13
aI6
aI64
aI9
aI6
aI34
aI0
aI23
aI31
aI5
aI0
aI1
aI5
aI1
aI13
aI12
aI5
aI7
aI0
aI36
aI9
aI25
aI111
aI19
aI1
aI0
aI0
aI1240
aI6
aI7
aI9
aI229
aI1
aI9
aI393
aI36
aI12
aI13
aI0
aI82
aI0
aI11
aI12
aI31
aI10
aI6
aI0
aI398
aI12
aI211
aI21
aI75
aI5
aI15
aI0
aI142
aI2
aI3
aI2
aI22
aI7
aI6
aI7
aI0
aI58
aI9
aI25
aI85
aI19
aI12
aI8
aI0
aI0
aI0
aI6
aI8
aI61
aI13
aI13
aI3
aI0
aI0
aI11
aI1
aI11
aI0
aI3
aI0
aI10
aI2
aI36
aI235
aI5
aI26
aI0
aI16
aI13
aI107
aI0
aI215
aI295
aI83
aI0
aI2
aI0
aI0
aI6
aI2
aI6
aI21
aI5
aI4
aI23
aI8
aI5
aI0
aI9
aI0
aI112
aI0
aI6
aI25
aI0
aI12
aI6
aI211
aI6
aI3
aI72
aI38
aI0
aI0
aI0
aI20
aI0
aI0
aI27
aI13
aI5
aI60
aI76
aI9
aI415
aI128
aI38
aI0
aI15
aI42
aI28
aI10
aI12
aI8
aI11
aI0
aI20
aI5
aI0
aI30
aI0
aI11
aI0
aI0
aI7
aI71
aI8
aI0
aI1
aI37
aI0
aI0
aI1
aI0
aI62
aI45
aI14
aI29
aI69
aI152
aI7
aI0
aI5
aI2
aI6
aI21
aI0
aI19
aI5
aI0
aI7
aI87
aI16
aI0
aI1
aI0
aI2
aI5
aI0
aI0
aI25
aI109
aI15
aI35
aI7
aI1
aI49
aI6
aI9
aI33
aI163
aI10
aI42
aI35
aI9
aI21
aI10
aI6
aI5
aI17
aI0
aI15
aI15
aI5
aI0
aI8
aI22
aI5
aI28
aI10
aI104
aI80
aI6
aI0
aI0
aI6
aI0
aI6
aI67
aI6
aI31
aI426
aI20
aI27
aI7
aI0
aI0
aI48
aI16
aI0
aI0
aI5
aI16
aI0
aI201
aI0
aI94
aI3
aI51
aI8
aI295
aI38
aI18
aI18
aI13
aI6
aI0
aI0
aI22
aI9
aI6
aI10
aI0
aI1
aI639
aI0
aI0
aI6
aI12
aI0
aI6
aI8
aI8
aI2
aI5
aI35
aI10
aI20
aI5
aI108
aI20
aI58
aI35
aI6
aI45
aI0
aI9
aI15
aI15
aI6
aI1114
aI0
aI7
aI9
aI108
aI15
aI0
aI5
aI84
aI60
aI58
aI35
aI34
aI0
aI1
aI22
aI7
aI272
aI0
aI20
aI264
aI0
aI5
aI1
aI6
aI8
aI8
aI54
aI9
aI91
aI0
aI1
aI0
aI0
aI34
aI0
aI440
aI3
aI10
aI0
aI19
aI5
aI19
aI147
aI9
aI17
aI14
aI20
aI6
aI6
aI0
aI25
aI5
aI5
aI0
aI127
aI166
aI8
aI41
aI0
aI40
aI13
aI46
aI73
aI5
aI6
aI14
aI43
aI0
aI0
aI17
aI82
aI5
aI52
aI0
aI10
aI151
aI117
aI8
aI0
aI3
aI0
aI22
aI270
aI8
aI1
aI32
aI5
aI41
aI6
aI15
aI5
aI0
aI6
aI0
aI3
aI6
aI36
aI0
aI5
aI8
aI27
aI0
aI32
aI37
aI0
aI10
aI1
aI0
aI14
aI173
aI5
aI1
aI6
aI7
aI1
aI5
aI0
aI0
aI14
aI77
aI0
aI11
aI1
aI6
aI12
aI0
aI674
aI0
aI0
aI14
aI0
aI0
aI0
aI12
aI6
aI7
aI3
aI23
aI43
aI0
aI0
aI8
aI11
aI2
aI5
aI0
aI1
aI26
aI26
aI0
aI2
aI123
aI9
aI30
aI0
aI6
aI17
aI6
aI3
aI0
aI140
aI6
aI249
aI42
aI77
aI5
aI22
aI0
aI2
aI5
aI0
aI0
aI125
aI45
aI259
aI6
aI18
aI5
aI0
aI0
aI0
aI5
aI7
aI46
aI0
aI63
aI0
aI0
aI82
aI20
aI13
aI35
aI8
aI6
aI25
aI0
aI1
aI5
aI14
aI43
aI18
aI8
aI80
aI12
aI7
aI0
aI768
aI118
aI4
aI5
aI0
aI0
aI7
aI15
aI0
aI0
aI29
aI0
aI8
aI0
aI31
aI26
aI46
aI8
aI0
aI0
aI0
aI602
aI53
aI58
aI0
aI77
aI9
aI11
aI10
aI0
aI10
aI3
aI80
aI0
aI12
aI60
aI21
aI5
aI15
aI0
aI15
aI0
aI9
aI0
aI3
aI0
aI5
aI75
aI0
aI0
aI0
aI486
aI0
aI7
aI0
aI0
aI0
aI10
aI33
aI183
aI0
aI9
aI0
aI25
aI2
aI17
aI25
aI8
aI5
aI6
aI0
aI6
aI69
aI5
aI227
aI28
aI6
aI0
aI0
aI4
aI173
aI18
aI9
aI7
aI0
aI0
aI11
aI191
aI68
aI0
aI39
aI0
aI40
aI0
aI32
aI53
aI0
aI4
aI10
aI6
aI55
aI2
aI4
aI0
aI0
aI47
aI31
aI53
aI14
aI0
aI1
aI616
aI23
aI14
aI3
aI87
aI75
aI60
aI3
aI55
aI54
aI0
aI0
aI0
aI0
aI101
aI6
aI1
aI11
aI0
aI8
aI23
aI0
aI10
aI15
aI7
aI0
aI44
aI9
aI3
aI5
aI0
aI2
aI10
aI5
aI20
aI0
aI5
aI6
aI0
aI1
aI1
aI631
aI0
aI0
aI0
aI8
aI78
aI58
aI57
aI16
aI54
aI2
aI96
aI14
aI24
aI7
aI8
aI10
aI476
aI63
aI0
aI13
aI13
aI30
aI6
aI0
aI141
aI31
aI0
aI0
aI30
aI10
aI5
aI0
aI9
aI45
aI5
aI0
aI293
aI5
aI16
aI7
aI94
aI54
aI0
aI6
aI14
aI0
aI5
aI5
aI30
aI1
aI0
aI5
aI66
aI20
aI94
aI74
aI0
aI5
aI6
aI32
aI0
aI16
aI0
aI6
aI5
aI51
aI8
aI6
aI9
aI386
aI10
aI6
aI57
aI6
aI15
aI0
aI5
aI0
aI67
aI0
aI0
aI11
aI12
aI1215
aI25
aI3
aI14
aI1
aI20
aI4
aI3
aI7
aI16
aI22
aI24
aI18
aI0
aI0
aI5
aI231
aI18
aI1
aI6
aI15
aI11
aI0
aI2
aI9
aI0
aI57
aI5
aI7
aI7
aI10
aI6
aI13
aI11
aI5
aI26
aI0
aI13
aI0
aI0
aI9
aI4
aI5
aI2
aI5
aI55
aI9
aI1
aI20
aI33
aI0
aI29
aI2
aI0
aI168
aI3
aI855
aI2
aI6
aI9
aI0
aI1
aI55
aI5
aI25
aI6
aI3
aI95
aI7
aI5
aI29
aI0
aI19
aI0
aI30
aI157
aI8
aI70
aI148
aI6
aI348
aI8
aI8
aI0
aI21
aI33
aI221
aI3
aI0
aI13
aI10
aI6
aI0
aI1
aI3
aI0
aI7
aI5
aI16
aI37
aI0
aI10
aI135
aI8
aI5
aI6
aI9
aI5
aI35
aI12
aI9
aI8
aI5
aI9
aI7
aI6
aI31
aI0
aI5
aI6
aI0
aI5
aI0
aI10
aI5
aI0
aI2
aI41
aI21
aI84
aI62
aI183
aI146
aI0
aI5
aI23
aI0
aI5
aI35
aI0
aI0
aI1
aI853
aI0
aI3
aI11
aI0
aI38
aI39
aI5
aI9
aI0
aI14
aI5
aI66
aI6
aI9
aI26
aI68
aI6
aI8
aI46
aI0
aI6
aI48
aI13
aI1906
aI0
aI18
aI43
aI0
aI10
aI21
aI14
aI5
aI0
aI5
aI0
aI8
aI2
aI8
aI11
aI19
aI0
aI5
aI9
aI0
aI5
aI107
aI0
aI24
aI90
aI72
aI138
aI97
aI6
aI322
aI4
aI829
aI2
aI5
aI5
aI0
aI2
aI45
aI0
aI0
aI10
aI2
aI32
aI0
aI43
aI1291
aI0
aI0
aI0
aI120
aI7
aI58
aI7
aI0
aI7
aI9
aI81
aI2
aI6
aI1
aI1
aI22
aI6
aI2
aI21
aI0
aI0
aI8
aI0
aI6
aI50
aI9
aI17
aI1
aI7
aI1
aI1
aI0
aI0
aI405
aI0
aI6
aI215
aI12
aI375
aI220
aI9
aI35
aI7
aI159
aI5
aI8
aI370
aI1
aI11
aI10
aI23
aI0
aI41
aI13
aI0
aI5
aI68
aI507
aI0
aI133
aI13
aI5
aI39
aI82
aI9
aI16
aI0
aI15
aI1
aI11
aI9
aI0
aI26
aI1
aI20
aI28
aI6
aI46
aI105
aI5
aI0
aI0
aI9
aI5
aI3
aI3
aI0
aI7
aI0
aI0
aI7
aI18
aI2
aI6
aI30
aI0
aI40
aI38
aI242
aI155
aI10
aI10
aI29
aI0
aI25
aI813
aI21
aI9
aI5
aI739
aI20
aI5
aI26
aI111
aI33
aI37
aI106
aI46
aI0
aI7
aI9
aI9
aI0
aI0
aI0
aI38
aI10
aI23
aI66
aI7
aI13
aI3
aI15
aI5
aI17
aI0
aI27
aI5
aI83
aI0
aI207
aI0
aI46
aI151
aI35
aI0
aI6
aI5
aI8
aI0
aI7
aI24
aI88
aI0
aI1
aI0
aI271
aI1
aI168
aI27
aI58
aI6
aI109
aI27
aI0
aI1
aI5
aI2
aI1
aI16
aI7
aI12
aI1
aI12
aI36
aI23
aI16
aI1
aI0
aI48
aI9
aI28
aI3
aI109
aI62
aI0
aI0
aI93
aI6
aI6
aI105
aI0
aI115
aI369
aI20
aI0
aI16
aI9
aI6
aI1
aI7
aI10
aI0
aI13
aI14
aI7
aI5
aI61
aI6
aI42
aI0
aI340
aI0
aI8
aI100
aI1
aI21
aI51
aI31
aI0
aI20
aI102
aI0
aI1
aI7
aI13
aI4
aI0
aI3
aI0
aI17
aI0
aI51
aI0
aI7
aI8
aI114
aI17
aI618
aI5
aI3
aI35
aI14
aI41
aI0
aI0
aI0
aI5
aI20
aI42
aI10
aI1
aI6
aI5
aI36
aI3
aI23
aI20
aI2
aI15
aI10
aI0
aI42
aI27
aI16
aI16
aI0
aI868
aI10
aI16
aI19
aI4
aI34
aI7
aI69
aI3
aI382
aI56
aI0
aI8
aI17
aI1
aI41
aI11
aI43
aI13
aI0
aI0
aI5
aI18
aI0
aI0
aI97
aI17
aI5
aI3
aI9
aI8
aI0
aI5
aI0
aI7
aI1
aI23
aI7
aI0
aI0
aI15
aI36
aI24
aI26
aI6
aI0
aI5
aI186
aI39
aI469
aI0
aI8
aI0
aI136
aI297
aI10
aI0
aI0
aI11
aI6
aI0
aI93
aI1
aI0
aI1
aI16
aI0
aI0
aI5
aI0
aI1
aI0
aI23
aI909
aI0
aI17
aI219
aI0
aI12
aI15
aI6
aI526
aI9
aI9
aI82
aI59
aI16
aI6
aI3
aI0
aI13
aI6
aI5
aI2
aI2
aI5
aI0
aI14
aI7
aI311
aI9
aI222
aI0
aI0
aI0
aI1
aI0
aI2
aI1010
aI1
aI16
aI64
aI10
aI25
aI0
aI12
aI27
aI49
aI0
aI0
aI47
aI18
aI25
aI0
aI5
aI1
aI325
aI17
aI0
aI14
aI1
aI0
aI0
aI0
aI0
aI0
aI9
aI51
aI4
aI0
aI27
aI0
aI0
aI68
aI38
aI20
aI0
aI19
aI43
aI20
aI5
aI7
aI1
aI1
aI127
aI3
aI0
aI0
aI0
aI5
aI61
aI6
aI4
aI24
aI21
aI7
aI9
aI0
aI8
aI0
aI38
aI0
aI80
aI238
aI18
aI62
aI5
aI371
aI8
aI29
aI8
aI19
aI59
aI3
aI13
aI238
aI57
aI26
aI7
aI5
aI208
aI124
aI6
aI89
aI30
aI50
aI8
aI43
aI9
aI10
aI40
aI48
aI10
aI13
aI13
aI105
aI56
aI15
aI78
aI7
aI35
aI24
aI8
aI11
aI69
aI13
aI22
aI10
aI92
aI16
aI0
aI51
aI0
aI7
aI2
aI52
aI5
aI9
aI5
aI2
aI0
aI2
aI56
aI5
aI0
aI0
aI32
aI13
aI0
aI28
aI5
aI7
aI109
aI0
aI36
aI6
aI5
aI14
aI80
aI203
aI6
aI60
aI37
aI5
aI1
aI0
aI27
aI59
aI5
aI50
aI8
aI17
aI9
aI145
aI16
aI17
aI209
aI7
aI0
aI19
aI43
aI9
aI23
aI0
aI5
aI6
aI1
aI11
aI0
aI0
aI18
aI3
aI5
aI44
aI3
aI17
aI8
aI1
aI254
aI314
aI5
aI87
aI100
aI280
aI49
aI28
aI1
aI0
aI9
aI29
aI80
aI4
aI7
aI26
aI0
aI0
aI30
aI522
aI7
aI6
aI6
aI6
aI251
aI63
aI8
aI616
aI120
aI0
aI228
aI3
aI21
aI33
aI267
aI7
aI25
aI4
aI7
aI0
aI188
aI0
aI6
aI5
aI1
aI91
aI6
aI7
aI6
aI0
aI0
aI0
aI195
aI13
aI6
aI5
aI8
aI105
aI2
aI0
aI9
aI7
aI0
aI9
aI18
aI1
aI18
aI5
aI0
aI7
aI5
aI5
aI3
aI19
aI96
aI13
aI0
aI0
aI9
aI0
aI6
aI12
aI1
aI2
aI0
aI508
aI0
aI128
aI0
aI45
aI2
aI5
aI0
aI76
aI0
aI0
aI1
aI75
aI23
aI0
aI11
aI94
aI1
aI123
aI0
aI10
aI103
aI0
aI75
aI1
aI148
aI2
aI7
aI0
aI5
aI24
aI36
aI2
aI51
aI11
aI2
aI7
aI4
aI4
aI2
aI0
aI0
aI58
aI7
aI14
aI6
aI0
aI77
aI1457
aI0
aI23
aI30
aI54
aI2
aI563
aI0
aI11
aI5
aI0
aI0
aI5
aI6
aI0
aI1
aI12
aI0
aI19
aI0
aI15
aI51
aI0
aI0
aI11
aI29
aI2
aI0
aI503
aI28
aI0
aI0
aI96
aI9
aI5
aI7
aI6
aI7
aI5
aI686
aI80
aI0
aI24
aI7
aI1
aI50
aI0
aI0
aI15
aI10
aI29
aI16
aI7
aI7
aI0
aI0
aI0
aI7
aI8
aI146
aI211
aI21
aI0
aI0
aI1
aI321
aI69
aI9
aI5
aI9
aI0
aI0
aI192
aI22
aI20
aI11
aI8
aI5
aI490
aI15
aI12
aI6
aI0
aI9
aI39
aI14
aI0
aI8
aI8
aI7
aI0
aI0
aI14
aI15
aI302
aI5
aI2
aI297
aI14
aI11
aI0
aI66
aI18
aI5
aI5
aI97
aI0
aI0
aI0
aI9
aI7
aI0
aI0
aI582
aI54
aI0
aI0
aI42
aI0
aI0
aI60
aI12
aI42
aI0
aI0
aI1
aI9
aI32
aI0
aI0
aI0
aI3
aI6
aI5
aI55
aI7
aI18
aI0
aI10
aI70
aI1
aI0
aI107
aI0
aI56
aI22
aI118
aI38
aI0
aI111
aI10
aI246
aI0
aI75
aI6
aI5
aI12
aI16
aI53
aI0
aI0
aI84
aI0
aI24
aI2
aI53
aI14
aI309
aI52
aI2
aI6
aI7
aI82
aI0
aI3
aI9
aI87
aI0
aI9
aI6
aI75
aI7
aI11
aI0
aI1
aI2
aI3
aI29
aI7
aI21
aI5
aI8
aI5
aI16
aI12
aI16
aI0
aI25
aI10
aI0
aI498
aI0
aI0
aI0
aI1
aI8
aI0
aI1
aI0
aI6
aI12
aI7
aI26
aI0
aI0
aI0
aI8
aI75
aI1
aI407
aI63
aI10
aI10
aI156
aI26
aI19
aI21
aI0
aI49
aI697
aI21
aI30
aI6
aI93
aI6
aI5
aI0
aI0
aI0
aI0
aI5
aI72
aI0
aI5
aI3
aI11
aI18
aI3
aI0
aI5
aI0
aI10
aI12
aI35
aI22
aI4
aI8
aI0
aI601
aI0
aI0
aI12
aI19
aI199
aI1
aI9
aI31
aI45
aI10
aI13
aI6
aI14
aI0
aI9
aI1
aI10
aI4
aI16
aI136
aI187
aI9
aI9
aI92
aI38
aI52
aI0
aI15
aI0
aI5
aI35
aI229
aI1
aI14
aI37
aI7
aI0
aI51
aI7
aI17
aI41
aI10
aI4
aI0
aI32
aI0
aI5
aI0
aI38
aI8
aI0
aI107
aI15
aI56
aI9
aI42
aI29
aI2
aI23
aI49
aI20
aI10
aI0
aI1
aI35
aI0
aI0
aI1
aI73
aI26
aI34
aI2
aI16
aI5
aI0
aI2
aI2
aI77
aI8
aI0
aI213
aI5
aI231
aI5
aI1216
aI15
aI1109
aI5
aI5
aI7
aI30
aI2
aI25
aI32
aI151
aI114
aI0
aI12
aI51
aI391
aI18
aI12
aI6
aI399
aI6
aI31
aI122
aI0
aI29
aI15
aI14
aI203
aI0
aI5
aI7
aI0
aI1
aI5
aI0
aI7
aI6
aI24
aI143
aI2
aI9
aI7
aI15
aI7
aI0
aI8
aI2
aI535
aI38
aI104
aI9
aI8
aI94
aI0
aI18
aI16
aI7
aI402
aI24
aI313
aI24
aI34
aI19
aI8
aI0
aI10
aI19
aI19
aI52
aI5
aI5
aI1
aI5
aI6
aI0
aI0
aI29
aI181
aI31
aI56
aI0
aI3
aI23
aI96
aI45
aI6
aI6
aI53
aI154
aI6
aI43
aI0
aI371
aI77
aI0
aI0
aI6
aI21
aI50
aI10
aI0
aI14
aI0
aI2
aI0
aI55
aI5
aI11
aI13
aI95
aI0
aI25
aI7
aI9
aI9
aI20
aI0
aI6
aI119
aI34
aI1
aI0
aI90
aI98
aI7
aI12
aI27
aI0
aI0
aI37
aI88
aI75
aI26
aI5
aI0
aI0
aI46
aI22
aI9
aI15
aI0
aI0
aI12
aI250
aI0
aI1
aI0
aI282
aI6
aI124
aI626
aI0
aI7
aI0
aI58
aI24
aI0
aI0
aI8
aI1
aI0
aI2
aI0
aI0
aI1
aI5
aI60
aI0
aI6
aI0
aI236
aI8
aI0
aI0
aI7
aI0
aI1
aI8
aI126
aI9
aI0
aI647
aI30
aI0
aI74
aI0
aI61
aI3
aI5
aI1
aI6
aI10
aI7
aI44
aI41
aI139
aI18
aI7
aI0
aI13
aI81
aI5
aI0
aI117
aI7
aI13
aI24
aI40
aI54
aI0
aI0
aI0
aI46
aI25
aI19
aI4
aI5
aI11
aI26
aI5
aI9
aI0
aI0
aI33
aI6
aI0
aI0
aI6
aI14
aI35
aI25
aI5
aI69
aI12
aI9
aI280
aI173
aI67
aI0
aI0
aI5
aI0
aI4
aI0
aI12
aI0
aI64
aI11
aI64
aI15
aI9
aI37
aI7
aI5
aI13
aI1
aI5
aI6
aI12
aI349
aI73
aI11
aI8
aI9
aI2
aI0
aI6
aI1
aI1
aI5
aI33
aI28
aI6
aI1
aI2
aI2
aI0
aI25
aI1
aI17
aI1
aI442
aI95
aI6
aI16
aI68
aI54
aI0
aI47
aI89
aI1
aI8
aI573
aI0
aI0
aI1
aI0
aI0
aI8
aI0
aI6
aI8
aI6
aI21
aI8
aI9
aI18
aI15
aI38
aI323
aI4
aI7
aI28
aI15
aI5
aI26
aI3
aI35
aI3
aI567
aI990
aI20
aI9
aI14
aI8
aI13
aI39
aI0
aI5
aI78
aI0
aI40
aI8
aI0
aI5
aI163
aI21
aI41
aI11
aI24
aI18
aI5
aI8
aI64
aI28
aI5
aI0
aI0
aI8
aI0
aI0
aI0
aI18
aI49
aI2
aI0
aI6
aI1
aI2
aI14
aI94
aI4
aI7
aI3
aI0
aI0
aI9
aI9
aI2
aI2
aI12
aI0
aI2
aI13
aI64
aI6
aI7
aI13
aI41
aI11
aI1268
aI4
aI0
aI7
aI151
aI1
aI36
aI168
aI0
aI0
aI5
aI0
aI0
aI0
aI0
aI6
aI6
aI446
aI3
aI7
aI0
aI1
aI334
aI9
aI5
aI2
aI12
aI0
aI11
aI8
aI6
aI8
aI0
aI6
aI0
aI17
aI0
aI2
aI1
aI118
aI16
aI10
aI5
aI0
aI8
aI6
aI18
aI7
aI36
aI0
aI0
aI0
aI9
aI3
aI5
aI7
aI1
aI20
aI0
aI29
aI12
aI0
aI118
aI6
aI40
aI162
aI5
aI0
aI5
aI0
aI8
aI75
aI25
aI0
aI8
aI23
aI1
aI0
aI152
aI0
aI3
aI98
aI160
aI0
aI9
aI0
aI1
aI1
aI0
aI15
aI2
aI358
aI7
aI8
aI59
aI0
aI48
aI713
aI0
aI12
aI2
aI5
aI116
aI0
aI96
aI2
aI8
aI0
aI22
aI0
aI7
aI46
aI0
aI6
aI10
aI5
aI0
aI16
aI0
aI15
aI0
aI32
aI13
aI14
aI5
aI23
aI0
aI8
aI7
aI5
aI9
aI7
aI151
aI782
aI0
aI50
aI17
aI0
aI275
aI103
aI5
aI19
aI33
aI9
aI0
aI6
aI10
aI0
aI23
aI0
aI5
aI117
aI6
aI0
aI1
aI12
aI5
aI705
aI3
aI2
aI13
aI35
aI0
aI19
aI6
aI0
aI0
aI6
aI0
aI0
aI97
aI35
aI8
aI0
aI3
aI11
aI7
aI0
aI11
aI1
aI1
aI6
aI2
aI52
aI1
aI2
aI0
aI11
aI713
aI1256
aI8
aI20
aI0
aI0
aI1
aI0
aI1
aI0
aI8
aI14
aI0
aI1
aI204
aI7
aI3
aI11
aI6
aI7
aI8
aI9
aI12
aI21
aI1
aI0
aI0
aI2
aI0
aI8
aI9
aI12
aI0
aI6
aI0
aI5
aI11
aI16
aI0
aI18
aI355
aI5
aI3
aI9
aI3
aI698
aI0
aI1
aI48
aI5
aI0
aI8
aI1
aI24
aI144
aI0
aI112
aI0
aI0
aI8
aI7
aI33
aI0
aI7
aI370
aI68
aI308
aI0
aI144
aI8
aI10
aI19
aI76
aI6
aI3
aI0
aI27
aI22
aI5
aI676
aI0
aI0
aI1
aI0
aI1
aI4
aI9
aI336
aI47
aI57
aI17
aI0
aI64
aI4
aI6
aI113
aI7
aI764
aI8
aI5
aI648
aI9
aI2
aI24
aI1
aI89
aI17
aI16
aI0
aI1
aI1
aI91
aI0
aI0
aI75
aI12
aI0
aI0
aI378
aI74
aI11
aI5
aI13
aI88
aI49
aI2
aI5
aI27
aI85
aI4
aI854
aI8
aI8
aI0
aI845
aI149
aI25
aI11
aI11
aI2
aI0
aI6
aI0
aI5
aI1
aI16
aI5
aI236
aI0
aI0
aI14
aI121
aI192
aI0
aI95
aI6
aI6
aI83
aI12
aI7
aI0
aI0
aI9
aI5
aI22
aI2
aI0
aI0
aI88
aI0
aI5
aI4
aI3
aI28
aI0
aI11
aI34
aI87
aI1
aI14
aI7
aI28
aI44
aI0
aI0
aI187
aI5
aI0
aI12
aI7
aI122
aI5
aI15
aI46
aI28
aI25
aI13
aI5
aI49
aI0
aI2
aI24
aI7
aI2
aI0
aI5
aI7
aI7
aI16
aI20
aI1
aI34
aI7
aI9
aI0
aI0
aI5
aI31
aI1
aI87
aI6
aI35
aI0
aI16
aI11
aI0
aI92
aI10
aI0
aI0
aI29
aI178
aI0
aI5
aI73
aI7
aI24
aI1
aI33
aI5
aI12
aI0
aI8
aI0
aI6
aI8
aI2
aI32
aI21
aI10
aI68
aI81
aI7
aI5
aI24
aI11
aI5
aI1
aI29
aI0
aI3
aI5
aI0
aI1
aI696
aI19
aI0
aI153
aI1
aI5
aI6
aI70
aI0
aI7
aI0
aI3
aI12
aI18
aI13
aI7
aI3
aI12
aI1
aI0
aI1
aI51
aI12
aI0
aI161
aI0
aI6
aI0
aI1
aI29
aI188
aI9
aI7
aI9
aI20
aI10
aI7
aI17
aI7
aI43
aI23
aI24
aI0
aI1
aI151
aI6
aI7
aI2
aI16
aI0
aI1
aI0
aI5
aI13
aI17
aI0
aI391
aI51
aI1
aI5
aI182
aI5
aI2
aI5
aI355
aI0
aI0
aI0
aI0
aI16
aI27
aI22
aI1
aI0
aI0
aI58
aI5
aI30
aI14
aI0
aI15
aI17
aI29
aI11
aI6
aI0
aI5
aI0
aI24
aI0
aI12
aI44
aI0
aI13
aI21
aI244
aI9
aI0
aI25
aI5
aI0
aI18
aI12
aI8
aI7
aI0
aI0
aI159
aI13
aI134
aI21
aI6
aI13
aI12
aI5
aI7
aI93
aI0
aI0
aI11
aI0
aI0
aI3
aI68
aI13
aI11
aI0
aI6
aI34
aI43
aI8
aI5
aI1
aI0
aI14
aI4
aI106
aI10
aI0
aI0
aI0
aI0
aI23
aI0
aI24
aI49
aI35
aI42
aI0
aI7
aI0
aI8
aI179
aI9
aI1
aI1
aI8
aI5
aI32
aI0
aI21
aI5
aI8
aI5
aI6
aI54
aI46
aI34
aI0
aI5
aI0
aI0
aI126
aI15
aI7
aI34
aI0
aI46
aI102
aI0
aI1
aI0
aI0
aI52
aI9
aI3
aI148
aI0
aI8
aI9
aI8
aI0
aI7
aI119
aI0
aI27
aI4
aI16
aI7
aI0
aI22
aI39
aI6
aI0
aI8
aI0
aI41
aI12
aI212
aI66
aI0
aI7
aI0
aI5
aI0
aI5
aI0
aI5
aI6
aI10
aI14
aI0
aI6
aI24
aI11
aI6
aI8
aI42
aI13
aI0
aI14
aI116
aI0
aI8
aI90
aI0
aI690
aI5
aI5
aI6
aI7
aI78
aI9
aI8
aI273
aI19
aI20
aI6
aI1
aI0
aI0
aI0
aI19
aI6
aI1
aI7
aI7
aI60
aI66
aI0
aI0
aI6
aI6
aI6
aI39
aI8
aI95
aI0
aI0
aI11
aI8
aI2
aI5
aI1
aI48
aI20
aI30
aI261
aI11
aI5
aI14
aI0
aI85
aI5
aI16
aI6
aI0
aI7
aI122
aI0
aI12
aI31
aI14
aI0
aI6
aI24
aI316
aI0
aI185
aI29
aI48
aI162
aI0
aI12
aI176
aI8
aI62
aI112
aI34
aI10
aI51
aI10
aI5
aI1
aI1
aI10
aI13
aI37
aI0
aI139
aI0
aI0
aI22
aI0
aI0
aI8
aI3
aI0
aI1
aI8
aI11
aI6
aI1
aI0
aI4
aI17
aI0
aI3
aI13
aI0
aI48
aI0
aI5
aI39
aI10
aI6
aI0
aI24
aI11
aI0
aI6
aI12
aI7
aI1
aI1
aI24
aI0
aI145
aI0
aI1
aI2
aI12
aI5
aI479
aI0
aI13
aI10
aI26
aI93
aI9
aI8
aI0
aI12
aI5
aI6
aI14
aI7
aI10
aI51
aI27
aI5
aI5
aI105
aI26
aI43
aI4
aI6
aI0
aI15
aI0
aI5
aI6
aI22
aI0
aI8
aI0
aI44
aI5
aI0
aI16
aI77
aI57
aI11
aI5
aI0
aI0
aI32
aI8
aI5
aI3
aI2
aI0
aI10
aI7
aI0
aI7
aI5
aI0
aI7
aI0
aI18
aI162
aI0
aI214
aI0
aI26
aI0
aI0
aI6
aI13
aI20
aI5
aI0
aI0
aI6
aI2
aI0
aI0
aI0
aI52
aI76
aI0
aI10
aI56
aI7
aI4
aI0
aI0
aI5
aI10
aI0
aI5
aI16
aI0
aI0
aI0
aI36
aI19
aI0
aI7
aI4
aI0
aI91
aI5862
aI4
aI83
aI114
aI0
aI2
aI7
aI32
aI8
aI11
aI342
aI7
aI0
aI0
aI5
aI5
aI3
aI0
aI15
aI15
aI500
aI293
aI2
aI5
aI16
aI815
aI13
aI39
aI1
aI0
aI13
aI85
aI11
aI1
aI0
aI12
aI0
aI85
aI381
aI0
aI1
aI199
aI9
aI0
aI137
aI19
aI0
aI8
aI0
aI43
aI34
aI0
aI17
aI0
aI5
aI0
aI7
aI0
aI0
aI16
aI135
aI0
aI0
aI7
aI186
aI5
aI0
aI5
aI13
aI0
aI37
aI12
aI0
aI38
aI17
aI31
aI90
aI5
aI0
aI14
aI4
aI5
aI0
aI0
aI174
aI0
aI7
aI5
aI14
aI9
aI7
aI0
aI5
aI426
aI65
aI32
aI12
aI0
aI0
aI5
aI9
aI6
aI40
aI150
aI12
aI6
aI8
aI11
aI1
aI6
aI0
aI0
aI0
aI16
aI4
aI0
aI190
aI9
aI3
aI5
aI0
aI0
aI52
aI88
aI5
aI1
aI15
aI7
aI1
aI31
aI13
aI26
aI56
aI27
aI3
aI19
aI17
aI0
aI12
aI7
aI29
aI184
aI8
aI0
aI24
aI189
aI0
aI0
aI123
aI15
aI34
aI0
aI0
aI20
aI0
aI5
aI52
aI70
aI33
aI56
aI0
aI6
aI0
aI7
aI3
aI0
aI0
aI18
aI17
aI8
aI33
aI9
aI0
aI54
aI0
aI5
aI8
aI6
aI16
aI5
aI25
aI6
aI0
aI31
aI9
aI39
aI0
aI61
aI5
aI22
aI0
aI0
aI2
aI23
aI6
aI0
aI0
aI13
aI93
aI117
aI10
aI18
aI9
aI13
aI2035
aI45
aI7
aI1
aI34
aI8
aI2
aI10
aI28
aI0
aI132
aI0
aI4
aI0
aI93
aI63
aI83
aI26
aI10
aI26
aI9
aI37
aI145
aI45
aI5
aI8
aI4
aI101
aI311
aI5
aI8
aI27
aI2138
aI251
aI37
aI18
aI10
aI9
aI0
aI0
aI43
aI45
aI9
aI5
aI16
aI47
aI4
aI0
aI4
aI17
aI0
aI0
aI6
aI9
aI8
aI1
aI1
aI7
aI138
aI15
aI11
aI19
aI3
aI8
aI2
aI2
aI18
aI7
aI13
aI25
aI10
aI0
aI13
aI11
aI3
aI10
aI10
aI0
aI0
aI0
aI19
aI0
aI7
aI100
aI1
aI0
aI72
aI8
aI1
aI64
aI5
aI199
aI186
aI0
aI2
aI0
aI3
aI0
aI7
aI0
aI11
aI65
aI1773
aI34
aI86
aI295
aI2
aI0
aI8
aI5
aI6
aI10
aI204
aI24
aI12
aI19
aI8
aI5
aI6
aI0
aI1
aI0
aI129
aI6
aI12
aI0
aI0
aI0
aI0
aI4
aI24
aI0
aI11
aI14
aI72
aI6
aI23
aI0
aI332
aI134
aI1
aI0
aI5
aI10
aI62
aI0
aI11
aI43
aI150
aI1
aI379
aI12
aI9
aI11
aI0
aI82
aI7
aI9
aI20
aI1
aI10
aI127
aI46
aI0
aI0
aI52
aI100
aI0
aI12
aI74
aI25
aI66
aI14
aI9
aI5
aI6
aI67
aI21
aI0
aI4996
aI97
aI3
aI48
aI51
aI8
aI5
aI12
aI0
aI5
aI11
aI4
aI53
aI8
aI9
aI0
aI44
aI0
aI3
aI258
aI56
aI57
aI1
aI0
aI0
aI0
aI29
aI3143
aI18
aI15
aI38
aI16
aI6
aI22
aI12
aI90
aI1
aI6
aI0
aI2
aI0
aI104
aI2
aI20
aI5
aI46
aI4
aI16
aI9
aI0
aI10
aI46
aI7
aI7
aI40
aI14
aI16
aI193
aI26
aI30
aI0
aI87
aI9
aI37
aI5
aI25
aI0
aI0
aI10
aI3
aI10
aI148
aI5
aI0
aI0
aI0
aI16
aI0
aI7
aI0
aI7
aI0
aI34
aI2
aI17
aI77
aI25
aI1
aI3
aI8
aI1
aI12
aI7
aI0
aI0
aI0
aI0
aI580
aI11
aI8
aI6
aI0
aI5
aI6
aI18
aI27
aI12
aI0
aI0
aI0
aI9
aI29
aI5
aI5
aI24
aI132
aI8
aI4
aI4
aI106
aI9
aI4
aI6
aI43
aI0
aI19
aI182
aI7
aI9
aI5
aI0
aI241
aI69
aI347
aI5
aI0
aI8
aI40
aI76
aI58
aI25
aI10
aI21
aI250
aI67
aI0
aI0
aI42
aI10
aI9
aI73
aI1
aI803
aI2
aI7
aI5
aI0
aI3
aI14
aI7
aI74
aI0
aI6
aI16
aI5
aI21
aI43
aI35
aI231
aI0
aI1
aI45
aI0
aI8
aI0
aI6
aI6
aI9
aI54
aI0
aI0
aI0
aI6
aI4
aI7
aI0
aI84
aI11
aI14
aI0
aI8
aI26
aI2
aI0
aI115
aI5
aI130
aI7
aI0
aI67
aI28
aI5
aI0
aI23
aI10
aI10
aI22
aI104
aI9
aI22
aI31
aI15
aI31
aI16
aI9
aI48
aI6
aI18
aI0
aI108
aI50
aI299
aI6
aI0
aI81
aI0
aI5
aI50
aI0
aI0
aI433
aI5
aI14
aI5
aI0
aI18
aI6
aI10
aI5
aI8
aI0
aI10
aI2
aI5
aI36
aI0
aI31
aI12
aI15
aI0
aI0
aI18
aI2
aI6
aI9
aI0
aI12
aI5
aI0
aI41
aI0
aI14
aI8
aI152
aI24
aI117
aI19
aI31
aI3
aI6
aI125
aI863
aI0
aI5
aI0
aI1
aI104
aI6
aI48
aI7
aI6
aI6
aI5
aI0
aI7
aI3
aI0
aI9
aI0
aI0
aI11
aI2
aI10
aI160
aI247
aI8
aI19
aI5
aI23
aI0
aI62
aI874
aI6
aI36
aI15
aI354
aI0
aI6
aI246
aI0
aI0
aI44
aI10
aI12
aI5
aI36
aI8
aI67
aI154
aI11
aI1
aI0
aI5
aI104
aI623
aI9
aI231
aI5
aI0
aI398
aI2
aI4
aI4
aI10
aI0
aI0
aI4
aI86
aI3
aI11
aI11
aI73
aI0
aI21
aI0
aI1
aI9
aI0
aI0
aI2
aI110
aI69
aI7
aI5
aI2
aI78
aI5
aI5
aI15
aI0
aI26
aI6
aI7
aI10
aI3
aI12
aI52
aI67
aI0
aI0
aI17
aI0
aI5
aI26
aI0
aI114
aI28
aI1
aI0
aI85
aI5
aI20
aI153
aI0
aI32
aI6
aI6
aI7
aI338
aI21
aI19
aI34
aI118
aI5
aI0
aI41
aI0
aI2
aI0
aI0
aI63
aI200
aI0
aI17
aI5
aI17
aI50
aI0
aI70
aI22
aI3
aI13
aI0
aI8
aI9
aI18
aI34
aI9
aI0
aI7
aI149
aI274
aI6
aI15
aI20
aI0
aI0
aI0
aI6
aI76
aI15
aI0
aI131
aI10
aI47
aI0
aI5
aI49
aI12
aI62
aI9
aI14
aI19
aI0
aI0
aI39
aI242
aI5
aI77
aI0
aI0
aI44
aI0
aI20
aI0
aI6
aI4
aI0
aI65
aI10
aI5
aI0
aI36
aI30
aI13
aI71
aI5
aI198
aI234
aI1
aI218
aI243
aI0
aI9
aI24
aI0
aI37
aI4
aI0
aI11
aI0
aI0
aI24
aI12
aI16
aI59
aI0
aI22
aI20
aI8
aI7
aI0
aI0
aI0
aI26
aI0
aI2
aI0
aI6
aI106
aI57
aI4
aI221
aI6
aI20
aI107
aI9
aI2
aI32
aI5
aI0
aI40
aI5
aI0
aI8
aI0
aI1
aI15
aI22
aI138
aI17
aI23
aI54
aI6
aI0
aI4
aI0
aI9
aI8
aI1
aI21
aI1522
aI9
aI0
aI175
aI8
aI60
aI9
aI9
aI15
aI8
aI96
aI0
aI19
aI18
aI0
aI13
aI17
aI111
aI7
aI17
aI0
aI52
aI5
aI48
aI6
aI41
aI15
aI6
aI0
aI6
aI17
aI61
aI0
aI9
aI50
aI180
aI0
aI12
aI1
aI77
aI15
aI0
aI19
aI172
aI278
aI30
aI24
aI5
aI0
aI2
aI45
aI7
aI0
aI1
aI0
aI1357
aI82
aI0
aI9
aI8
aI5
aI19
aI459
aI0
aI9
aI8
aI102
aI0
aI1
aI99
aI7
aI0
aI51
aI0
aI5
aI5
aI3
aI14
aI17
aI94
aI6
aI0
aI0
aI177
aI14
aI11
aI0
aI9
aI42
aI28
aI10
aI121
aI15
aI2
aI124
aI27
aI16
aI27
aI5
aI0
aI0
aI0
aI31
aI18
aI1
aI27
aI9
aI10
aI0
aI6
aI13
aI0
aI1
aI3
aI6
aI138
aI78
aI0
aI1
aI10
aI26
aI21
aI21
aI0
aI0
aI6
aI5
aI5
aI1
aI8
aI74
aI0
aI0
aI0
aI0
aI12
aI243
aI0
aI193
aI31
aI0
aI19
aI0
aI42
aI0
aI6
aI41
aI2
aI3
aI0
aI3
aI107
aI0
aI2
aI0
aI8
aI22
aI0
aI0
aI1
aI37
aI0
aI25
aI115
aI360
aI5
aI0
aI1
aI11
aI68
aI0
aI3
aI13
aI23
aI4
aI7
aI15
aI10
aI15
aI5
aI0
aI184
aI110
aI7
aI18
aI24
aI8
aI1
aI0
aI2
aI0
aI1
aI20
aI5
aI1
aI0
aI0
aI106
aI178
aI434
aI81
aI89
aI0
aI6
aI7
aI15
aI0
aI0
aI8
aI2
aI665
aI6
aI9
aI28
aI0
aI0
aI5
aI74
aI13
aI9
aI27
aI0
aI7
aI0
aI9
aI20
aI6
aI8
aI9
aI6
aI13
aI0
aI15
aI24
aI22
aI0
aI0
aI0
aI8
aI7
aI6
aI0
aI27
aI55
aI13
aI0
aI7
aI0
aI0
aI16
aI11
aI111
aI7
aI5
aI0
aI187
aI0
aI6
aI15
aI0
aI0
aI10
aI0
aI13
aI13
aI0
aI45
aI610
aI56
aI1
aI51
aI6
aI0
aI78
aI5
aI0
aI0
aI0
aI33
aI101
aI36
aI11
aI89
aI0
aI135
aI524
aI21
aI0
aI0
aI38
aI21
aI7
aI0
aI22
aI140
aI7
aI122
aI0
aI13
aI30
aI61
aI8
aI0
aI121
aI6
aI0
aI0
aI28
aI5
aI7
aI27
aI9
aI78
aI27
aI9
aI194
aI0
aI0
aI50
aI40
aI1
aI10
aI752
aI1
aI5
aI14
aI7
aI783
aI0
aI8
aI0
aI0
aI20
aI22
aI51
aI27
aI3
aI488
aI8
aI0
aI5
aI3
aI3
aI0
aI6
aI5
aI8
aI6
aI47
aI58
aI17
aI0
aI5
aI0
aI72
aI1
aI436
aI0
aI11
aI0
aI0
aI4
aI3
aI0
aI5
aI7
aI7
aI122
aI6
aI120
aI1
aI9
aI0
aI0
aI11
aI0
aI5
aI26
aI5
aI0
aI31
aI86
aI96
aI0
aI0
aI8
aI58
aI5
aI0
aI70
aI10
aI38
aI10
aI5
aI24
aI2
aI190
aI54
aI0
aI71
aI323
aI25
aI0
aI0
aI0
aI7
aI0
aI0
aI26
aI39
aI6
aI9
aI12
aI14
aI46
aI8
aI17
aI811
aI9
aI10
aI39
aI6
aI0
aI15
aI0
aI462
aI29
aI23
aI0
aI13
aI18
aI28
aI16
aI0
aI5
aI8
aI17
aI3
aI12
aI0
aI5
aI22
aI161
aI5
aI6
aI0
aI0
aI0
aI38
aI4
aI45
aI0
aI39
aI5
aI7
aI6
aI28
aI516
aI19
aI228
aI0
aI7
aI28
aI409
aI11
aI27
aI0
aI40
aI5
aI12
aI0
aI6
aI10
aI14
aI28
aI0
aI15
aI2
aI1
aI6
aI4
aI67
aI16
aI50
aI7
aI54
aI0
aI0
aI0
aI141
aI1
aI76
aI17
aI0
aI1605
aI0
aI3
aI0
aI7
aI5
aI17
aI1
aI576
aI47
aI2
aI0
aI0
aI0
aI3
aI0
aI33
aI37
aI19
aI0
aI0
aI54
aI72
aI0
aI1
aI0
aI1
aI47
aI66
aI34
aI38
aI11
aI39
aI0
aI0
aI11
aI16
aI9
aI13
aI5
aI11
aI5
aI5
aI2
aI33
aI108
aI293
aI58
aI5
aI11
aI0
aI57
aI0
aI120
aI3
aI29
aI49
aI28
aI16
aI135
aI0
aI9
aI2
aI6
aI9
aI125
aI16
aI2
aI7
aI20
aI272
aI25
aI186
aI1
aI2
aI24
aI6
aI10
aI19
aI0
aI6
aI1
aI6
aI6
aI89
aI44
aI0
aI21
aI16
aI2
aI74
aI0
aI6
aI31
aI9
aI0
aI0
aI0
aI5
aI0
aI0
aI9
aI9
aI0
aI440
aI18
aI121
aI5
aI28
aI9
aI0
aI17
aI7
aI85
aI5
aI0
aI92
aI9
aI0
aI143
aI321
aI29
aI0
aI9
aI24
aI5
aI0
aI0
aI2167
aI18
aI31
aI0
aI6
aI21
aI0
aI8
aI0
aI0
aI137
aI7
aI0
aI0
aI1
aI0
aI0
aI306
aI6
aI5
aI12
aI14
aI16
aI6
aI4
aI9
aI7
aI0
aI0
aI0
aI7
aI0
aI5
aI2
aI105
aI10
aI0
aI23
aI15
aI0
aI5
aI5
aI11
aI83
aI0
aI11
aI40
aI8
aI5
aI0
aI41
aI0
aI24
aI6
aI5
aI3
aI11
aI89
aI1
aI1
aI54
aI9
aI0
aI42
aI12
aI148
aI18
aI2
aI35
aI9
aI10
aI0
aI10
aI27
aI0
aI24
aI4
aI5
aI1
aI13
aI135
aI0
aI11
aI0
aI945
aI32
aI19
aI1
aI1
aI284
aI0
aI1
aI320
aI0
aI9
aI8
aI0
aI0
aI12
aI72
aI0
aI0
aI980
aI0
aI4
aI285
aI21
aI0
aI30
aI5
aI6
aI10
aI5
aI5
aI6
aI8
aI19
aI1934
aI9
aI0
aI155
aI0
aI0
aI6
aI7
aI6
aI13
aI6
aI52
aI7
aI29
aI5
aI52
aI8
aI5
aI29
aI0
aI0
aI5
aI0
aI0
aI6
aI0
aI7
aI0
aI22
aI41
aI5
aI15
aI171
aI10
aI0
aI11
aI35
aI592
aI62
aI3
aI68
aI27
aI44
aI96
aI0
aI15
aI6
aI58
aI0
aI35
aI76
aI112
aI192
aI4
aI5
aI1
aI12
aI6
aI27
aI0
aI2
aI6
aI0
aI17
aI5
aI9
aI0
aI24
aI136
aI116
aI268
aI0
aI18
aI21
aI0
aI11
aI13
aI3
aI74
aI2
aI6
aI8
aI0
aI6
aI5
aI2
aI8
aI8
aI6
aI1
aI16
aI517
aI303
aI1
aI13
aI19
aI5
aI53
aI8
aI27
aI19
aI0
aI126
aI14
aI203
aI0
aI1
aI290
aI3
aI1
aI61
aI0
aI66
aI7
aI5
aI6
aI14
aI15
aI66
aI0
aI0
aI32
aI13
aI25
aI12
aI9
aI206
aI5
aI10
aI32
aI0
aI0
aI5
aI10
aI102
aI0
aI3
aI10
aI16
aI13
aI91
aI47
aI0
aI0
aI5
aI28
aI1
aI3
aI4
aI9
aI8
aI0
aI22
aI10
aI1
aI5
aI96
aI345
aI0
aI23
aI0
aI1
aI32
aI0
aI11
aI0
aI105
aI25
aI5
aI0
aI1243
aI2
aI9
aI2
aI14
aI32
aI7
aI61
aI5
aI64
aI4
aI16
aI31
aI95
aI13
aI18
aI0
aI11
aI623
aI5
aI54
aI7
aI1
aI208
aI5
aI123
aI6
aI136
aI194
aI152
aI14
aI32
aI6
aI25
aI0
aI8
aI142
aI6
aI11
aI16
aI154
aI180
aI6
aI8
aI8
aI2
aI11
aI65
aI261
aI6
aI0
aI8
aI4
aI1
aI142
aI39
aI9
aI14
aI9
aI11
aI5
aI13
aI110
aI35
aI1
aI0
aI453
aI19
aI0
aI5
aI7
aI0
aI107
aI6
aI46
aI268
aI10
aI36
aI5
aI32
aI0
aI7
aI2
aI0
aI14
aI159
aI5
aI7
aI26
aI0
aI0
aI85
aI0
aI0
aI40
aI1
aI18
aI6
aI0
aI12
aI2
aI4
aI0
aI0
aI9
aI0
aI7
aI0
aI0
aI14
aI11
aI62
aI9
aI26
aI6
aI0
aI26
aI17
aI2
aI12
aI0
aI19
aI8
aI69
aI5
aI0
aI0
aI176
aI8
aI0
aI6
aI0
aI54
aI0
aI9
aI6
aI5
aI231
aI0
aI1
aI38
aI6
aI47
aI5
aI25
aI9
aI124
aI32
aI6
aI13
aI6
aI8
aI149
aI17
aI94
aI0
aI52
aI4
aI3
aI117
aI1
aI255
aI227
aI8
aI0
aI11
aI0
aI28
aI5
aI5
aI5
aI9
aI21
aI27
aI0
aI0
aI19
aI7
aI4
aI0
aI109
aI1
aI15
aI3
aI12
aI0
aI13
aI42
aI6
aI8
aI55
aI0
aI58
aI6
aI2
aI0
aI13
aI0
aI104
aI0
aI26
aI0
aI116
aI0
aI5
aI1
aI15
aI14
aI66
aI0
aI3
aI3
aI14
aI2
aI0
aI47
aI338
aI7
aI25
aI8
aI182
aI36
aI12
aI26
aI26
aI29
aI0
aI6
aI0
aI5
aI0
aI0
aI0
aI22
aI8
aI3
aI0
aI0
aI13
aI3
aI14
aI9
aI0
aI10
aI13
aI0
aI5
aI26
aI299
aI0
aI9
aI268
aI15
aI0
aI9
aI79
aI6
aI27
aI12
aI10
aI5
aI16
aI0
aI7
aI9
aI0
aI0
aI6
aI7
aI40
aI0
aI7
aI7
aI31
aI0
aI2079
aI27
aI10
aI0
aI62
aI30
aI5
aI1
aI56
aI33
aI6
aI11
aI1
aI0
aI4
aI7
aI436
aI36
aI42
aI0
aI6
aI0
aI0
aI0
aI62
aI0
aI10
aI95
aI26
aI13
aI10
aI6
aI0
aI5
aI0
aI73
aI3
aI5
aI5
aI0
aI9
aI41
aI7
aI123
aI13
aI0
aI0
aI15
aI0
aI5
aI89
aI0
aI11
aI30
aI5
aI0
aI100
aI41
aI35
aI3
aI6
aI7
aI69
aI2
aI427
aI21
aI34
aI14
aI1
aI153
aI11
aI12
aI5
aI24
aI0
aI12
aI0
aI6
aI0
aI0
aI8
aI0
aI24
aI0
aI61
aI0
aI5
aI368
aI701
aI6
aI0
aI0
aI0
aI145
aI31
aI28
aI17
aI0
aI176
aI47
aI10
aI41
aI5
aI3
aI6
aI30
aI73
aI5
aI1
aI8
aI9
aI6
aI11
aI21
aI1258
aI6
aI24
aI17
aI11
aI72
aI1
aI4
aI47
aI141
aI1
aI29
aI32
aI0
aI1
aI0
aI0
aI0
aI0
aI17
aI11
aI11
aI60
aI7
aI0
aI0
aI8
aI124
aI118
aI0
aI20
aI12
aI451
aI0
aI17
aI1
aI73
aI80
aI0
aI10
aI2
aI0
aI5
aI1
aI1
aI319
aI1
aI16
aI11
aI64
aI10
aI6
aI566
aI0
aI2
aI21
aI18
aI5
aI10
aI113
aI9
aI30
aI11
aI1
aI0
aI8
aI6
aI20
aI650
aI50
aI5
aI3
aI5
aI6
aI0
aI0
aI0
aI0
aI9
aI129
aI0
aI12
aI6
aI0
aI17
aI29
aI6
aI2
aI92
aI2
aI52
aI15
aI1
aI6
aI45
aI8
aI1
aI0
aI7
aI45
aI0
aI15
aI15
aI395
aI0
aI28
aI73
aI6
aI8
aI13
aI4
aI47
aI20
aI26
aI104
aI4
aI185
aI45
aI23
aI5
aI147
aI6
aI2
aI0
aI11
aI36
aI0
aI4
aI0
aI37
aI6
aI6
aI46
aI0
aI5
aI56
aI15
aI23
aI17
aI3
aI47
aI0
aI12
aI0
aI5
aI56
aI21
aI8
aI4
aI62
aI1
aI67
aI20
aI3
aI0
aI15
aI0
aI285
aI319
aI200
aI12
aI35
aI0
aI26
aI7
aI379
aI0
aI16
aI0
aI5
aI0
aI8
aI163
aI0
aI9
aI1
aI10
aI0
aI3
aI9
aI1
aI4
aI0
aI7
aI19
aI0
aI5
aI1
aI0
aI6
aI45
aI37
aI0
aI4
aI7
aI135
aI22
aI75
aI25
aI23
aI0
aI6
aI234
aI7
aI2
aI21
aI15
aI7
aI84
aI3
aI14
aI13
aI46
aI4
aI8
aI17
aI68
aI79
aI0
aI63
aI1
aI4
aI8
aI5
aI8
aI0
aI87
aI23
aI2
aI0
aI40
aI8
aI14
aI544
aI6
aI1
aI56
aI0
aI48
aI0
aI5
aI28
aI9
aI0
aI0
aI13
aI9
aI5
aI18
aI63
aI9
aI80
aI10
aI0
aI37
aI8
aI2
aI34
aI6
aI5
aI3
aI2
aI8
aI14
aI0
aI0
aI0
aI8
aI39
aI1
aI5
aI4
aI0
aI0
aI0
aI0
aI63
aI103
aI96
aI1564
aI10
aI1
aI8
aI6
aI4
aI84
aI6
aI11
aI32
aI16
aI1
aI11
aI50
aI13
aI19
aI0
aI1
aI12
aI5
aI297
aI9
aI0
aI25
aI0
aI5
aI73
aI9
aI7
aI2
aI5
aI17
aI0
aI0
aI62
aI0
aI11
aI1
aI7
aI0
aI4
aI1
aI1992
aI0
aI44
aI0
aI0
aI0
aI0
aI9
aI0
aI29
aI43
aI15
aI0
aI5
aI9
aI4
aI7
aI210
aI8
aI11
aI114
aI0
aI25
aI8
aI0
aI112
aI41
aI345
aI0
aI18
aI0
aI1
aI2
aI56
aI0
aI52
aI79
aI0
aI29
aI0
aI9
aI0
aI3
aI0
aI174
aI41
aI21
aI45
aI0
aI13
aI53
aI20
aI5
aI0
aI19
aI2
aI9
aI4
aI32
aI54
aI97
aI0
aI0
aI88
aI36
aI10
aI5
aI0
aI0
aI0
aI11
aI11
aI0
aI10
aI0
aI0
aI0
aI1
aI0
aI13
aI27
aI105
aI54
aI11
aI141
aI0
aI7
aI41
aI7
aI113
aI95
aI17
aI8
aI56
aI11
aI6
aI42
aI0
aI12
aI734
aI0
aI18
aI11
aI44
aI17
aI50
aI15
aI11
aI0
aI16
aI84
aI11
aI0
aI0
aI5
aI11
aI118
aI6
aI19
aI4
aI40
aI11
aI9
aI0
aI1
aI73
aI0
aI0
aI18
aI692
aI1
aI9
aI5
aI7
aI18
aI41
aI9
aI8
aI0
aI10
aI13
aI87
aI7
aI9
aI7
aI44
aI6
aI23
aI0
aI10
aI7
aI0
aI0
aI1
aI8
aI141
aI13
aI5
aI10
aI8
aI5
aI15
aI0
aI1
aI0
aI1
aI0
aI215
aI20
aI0
aI10
aI183
aI284
aI12
aI193
aI6
aI234
aI9
aI7
aI0
aI27
aI12
aI112
aI0
aI60
aI7
aI0
aI0
aI4
aI9
aI0
aI107
aI38
aI7
aI7
aI6
aI17
aI55
aI128
aI2
aI8
aI0
aI3
aI535
aI9
aI1
aI59
aI59
aI37
aI16
aI13
aI94
aI0
aI0
aI68
aI135
aI1
aI184
aI7
aI2
aI752
aI0
aI0
aI5
aI6
aI1
aI13
aI14
aI16
aI0
aI7
aI8
aI22
aI14
aI5
aI52
aI0
aI0
aI46
aI0
aI89
aI6
aI0
aI13
aI61
aI40
aI2
aI5
aI8
aI3
aI10
aI0
aI253
aI0
aI24
aI9
aI24
aI33
aI7
aI18
aI14
aI0
aI6
aI1
aI0
aI12
aI0
aI0
aI0
aI11
aI0
aI288
aI35
aI8
aI5
aI5
aI11
aI2
aI11
aI0
aI54
aI75
aI0
aI181
aI14
aI8
aI0
aI0
aI0
aI0
aI0
aI33
aI5
aI0
aI27
aI0
aI129
aI575
aI5
aI39
aI0
aI38
aI3
aI19
aI809
aI6
aI7
aI450
aI0
aI1171
aI18
aI5
aI8
aI731
aI6
aI52
aI25
aI4
aI0
aI11
aI5
aI12
aI51
aI0
aI3
aI14
aI12
aI0
aI17
aI1
aI24
aI0
aI36
aI12
aI26
aI0
aI0
aI0
aI68
aI0
aI21
aI9
aI0
aI31
aI0
aI14
aI1
aI6
aI146
aI3
aI5
aI454
aI41
aI6
aI0
aI0
aI19
aI6
aI0
aI5
aI56
aI329
aI19
aI30
aI5
aI7
aI0
aI0
aI11
aI9
aI16
aI136
aI22
aI368
aI5
aI67
aI22
aI0
aI1
aI6
aI1
aI0
aI0
aI27
aI28
aI63
aI8
aI211
aI28
aI0
aI2
aI17
aI0
aI4
aI1
aI13
aI0
aI11
aI30
aI0
aI5
aI87
aI10
aI0
aI0
aI0
aI13
aI138
aI15
aI67
aI7
aI1
aI49
aI1
aI0
aI11
aI7
aI1356
aI179
aI31
aI9
aI0
aI1
aI5
aI0
aI8
aI18
aI359
aI14
aI38
aI35
aI8
aI22
aI5
aI75
aI10
aI5
aI0
aI0
aI0
aI21
aI407
aI2
aI5
aI314
aI7
aI7
aI13
aI14
aI6
aI825
aI16
aI0
aI0
aI10
aI8
aI194
aI9
aI35
aI34
aI2
aI8
aI24
aI5
aI1
aI3
aI9
aI0
aI0
aI0
aI0
aI8
aI0
aI21
aI0
aI7
aI25
aI0
aI34
aI10
aI17
aI0
aI53
aI128
aI1
aI19
aI2
aI0
aI186
aI9
aI0
aI46
aI22
aI53
aI94
aI19
aI13
aI13
aI24
aI2
aI6
aI13
aI0
aI8
aI16
aI0
aI6
aI5
aI8
aI148
aI486
aI22
aI8
aI0
aI4
aI49
aI0
aI0
aI0
aI0
aI31
aI0
aI32
aI3
aI84
aI12
aI18
aI307
aI26
aI4
aI17
aI7
aI0
aI22
aI0
aI8
aI0
aI7
aI30
aI1
aI13
aI19
aI11
aI29
aI1
aI5
aI5
aI1
aI22
aI25
aI102
aI0
aI3
aI13
aI2
aI29
aI713
aI53
aI1
aI0
aI58
aI7
aI0
aI34
aI0
aI6
aI0
aI15
aI0
aI8
aI0
aI9
aI19
aI27
aI55
aI8
aI0
aI9
aI14
aI6
aI0
aI3
aI5
aI5
aI6
aI9
aI5
aI10
aI0
aI23
aI19
aI6
aI0
aI9
aI8
aI5
aI0
aI96
aI0
aI0
aI37
aI28
aI0
aI34
aI11
aI7
aI8
aI0
aI344
aI5
aI6
aI45
aI7
aI16
aI39
aI0
aI31
aI1
aI8
aI60
aI9
aI12
aI15
aI8
aI5
aI11
aI5
aI1
aI38
aI8
aI6
aI0
aI6
aI7
aI27
aI0
aI0
aI6
aI0
aI35
aI0
aI128
aI2
aI7
aI105
aI0
aI0
aI0
aI0
aI18
aI497
aI342
aI5
aI0
aI60
aI10
aI5
aI19
aI0
aI9
aI387
aI18
aI1
aI46
aI1
aI9
aI314
aI17
aI6
aI0
aI17
aI2
aI18
aI31
aI14
aI52
aI185
aI0
aI12
aI0
aI4
aI1
aI0
aI60
aI53
aI24
aI12
aI6
aI9
aI38
aI17
aI0
aI8
aI0
aI17
aI6
aI8
aI16
aI17
aI0
aI5
aI0
aI1214
aI1
aI42
aI0
aI18
aI1
aI30
aI1
aI26
aI2
aI0
aI0
aI18
aI13
aI0
aI187
aI5
aI24
aI0
aI17
aI5
aI221
aI0
aI331
aI7
aI28
aI24
aI101
aI9
aI28
aI5
aI16
aI2
aI392
aI0
aI10
aI48
aI7
aI10
aI6
aI1016
aI5
aI8
aI6
aI6
aI30
aI226
aI0
aI0
aI26
aI5
aI12
aI18
aI5
aI14
aI46
aI24
aI0
aI1
aI81
aI0
aI5
aI2
aI11
aI9
aI0
aI42
aI16
aI21
aI0
aI0
aI594
aI7
aI0
aI0
aI9
aI9
aI0
aI5
aI0
aI8
aI0
aI2
aI0
aI2
aI12
aI41
aI151
aI90
aI204
aI6
aI15
aI23
aI6
aI34
aI1
aI110
aI5
aI0
aI15
aI0
aI0
aI5
aI6
aI70
aI0
aI63
aI6
aI8
aI17
aI88
aI492
aI48
aI0
aI11
aI1
aI3
aI18
aI97
aI0
aI9
aI0
aI57
aI84
aI6
aI18
aI1
aI4
aI0
aI4
aI8
aI14
aI0
aI10
aI7
aI6
aI0
aI41
aI10
aI60
aI8
aI125
aI0
aI40
aI0
aI7
aI0
aI0
aI5
aI7
aI0
aI8
aI16
aI29
aI0
aI5
aI8
aI18
aI141
aI2
aI0
aI21
aI1
aI14
aI0
aI6
aI828
aI1
aI152
aI22
aI6
aI15
aI20
aI25
aI0
aI57
aI48
aI14
aI0
aI151
aI8
aI6
aI0
aI9
aI12
aI897
aI5
aI3
aI6
aI9
aI0
aI93
aI0
aI30
aI3
aI6
aI693
aI5
aI0
aI1486
aI10
aI10
aI27
aI6
aI17
aI1
aI54
aI39
aI16
aI7
aI0
aI147
aI32
aI0
aI11
aI1
aI6
aI7
aI4
aI96
aI7
aI6
aI114
aI113
aI0
aI10
aI10
aI5
aI70
aI14
aI6
aI0
aI0
aI11
aI0
aI0
aI12
aI0
aI157
aI0
aI46
aI1894
aI6
aI34
aI383
aI5
aI17
aI29
aI0
aI12
aI15
aI0
aI12
aI50
aI0
aI7
aI18
aI5
aI7
aI20
aI12
aI5
aI6
aI23
aI26
aI0
aI21
aI29
aI7
aI0
aI9
aI60
aI359
aI16
aI14
aI5
aI60
aI9
aI261
aI0
aI6
aI0
aI23
aI68
aI17
aI14
aI32
aI9
aI7
aI1
aI0
aI61
aI75
aI9
aI40
aI6
aI6
aI6
aI172
aI0
aI2403
aI101
aI3
aI41
aI2
aI10
aI0
aI7
aI34
aI50
aI0
aI3
aI18
aI8
aI0
aI5
aI99
aI32
aI7
aI27
aI12
aI38
aI0
aI7
aI0
aI4
aI5
aI4
aI0
aI19
aI1010
aI14
aI83
aI9
aI46
aI7
aI0
aI18
aI0
aI2
aI0
aI9
aI0
aI0
aI0
aI0
aI811
aI5
aI86
aI8
aI10
aI0
aI5
aI6
aI0
aI0
aI8
aI0
aI6
aI109
aI348
aI0
aI11
aI0
aI13
aI0
aI6
aI0
aI0
aI62
aI10
aI122
aI81
aI0
aI117
aI2
aI3
aI7
aI78
aI22
aI179
aI10
aI11
aI6
aI0
aI15
aI96
aI119
aI0
aI5
aI9
aI42
aI21
aI0
aI46
aI5
aI17
aI27
aI12
aI3
aI0
aI0
aI8
aI198
aI3
aI95
aI26
aI0
aI8
aI4
aI5
aI92
aI0
aI7
aI148
aI15
aI47
aI0
aI23
aI0
aI5
aI0
aI1
aI0
aI7
aI7
aI18
aI23
aI99
aI0
aI50
aI4
aI0
aI0
aI28
aI12
aI5
aI0
aI0
aI2
aI58
aI216
aI0
aI194
aI12
aI1604
aI664
aI0
aI711
aI39
aI0
aI48
aI7
aI7
aI0
aI14
aI9
aI13
aI0
aI4
aI9
aI47
aI18
aI28
aI69
aI9
aI0
aI5
aI5
aI1
aI2
aI6
aI6
aI11
aI29
aI9
aI30
aI28
aI7
aI6
aI5
aI0
aI11
aI61
aI213
aI6
aI0
aI118
aI12
aI46
aI33
aI11
aI26
aI34
aI16
aI5
aI0
aI6
aI7
aI10
aI362
aI3
aI5
aI1
aI6
aI2
aI0
aI1
aI3
aI0
aI8
aI0
aI1
aI8
aI31
aI45
aI0
aI13
aI16
aI394
aI24
aI172
aI197
aI2
aI30
aI11
aI73
aI0
aI236
aI15
aI9
aI9
aI34
aI10
aI18
aI6
aI50
aI1
aI20
aI6
aI0
aI6
aI38
aI4
aI17
aI1
aI10
aI2
aI11
aI174
aI16
aI83
aI5
aI111
aI14
aI383
aI0
aI12
aI4
aI1
aI334
aI0
aI5
aI5
aI28
aI8
aI0
aI91
aI5
aI26
aI0
aI81
aI0
aI6
aI571
aI16
aI13
aI17
aI43
aI9
aI7
aI0
aI5
aI5
aI8
aI1
aI0
aI40
aI774
aI0
aI0
aI30
aI0
aI1112
aI0
aI30
aI5
aI9
aI0
aI9
aI0
aI11
aI9
aI47
aI0
aI1
aI12
aI1
aI13
aI85
aI73
aI0
aI6
aI0
aI15
aI6
aI382
aI0
aI25
aI16
aI17
aI32
aI25
aI24
aI0
aI26
aI7
aI0
aI7
aI3
aI3
aI3
aI898
aI6
aI12
aI31
aI9
aI18
aI17
aI83
aI0
aI5
aI8
aI57
aI9
aI35
aI26
aI5
aI50
aI0
aI18
aI843
aI7
aI0
aI19
aI0
aI0
aI6
aI0
aI0
aI5
aI0
aI31
aI0
aI0
aI35
aI15
aI0
aI41
aI4
aI11
aI135
aI65
aI9
aI13
aI0
aI5
aI0
aI69
aI0
aI15
aI6
aI6
aI27
aI10
aI16
aI10
aI1
aI8
aI6
aI6
aI6
aI0
aI2
aI27
aI0
aI1
aI1
aI29
aI11
aI5
aI14
aI0
aI6
aI20
aI26
aI11
aI62
aI3
aI0
aI138
aI8
aI6
aI0
aI24
aI60
aI8
aI6
aI0
aI1
aI6
aI6
aI7
aI0
aI0
aI0
aI0
aI425
aI7
aI0
aI6
aI5
aI0
aI7
aI0
aI3
aI5
aI0
aI7
aI6
aI0
aI7
aI1
aI5
aI7
aI7
aI48
aI0
aI30
aI5
aI48
aI162
aI0
aI2
aI20
aI73
aI4
aI11
aI9
aI0
aI398
aI0
aI1
aI0
aI9
aI6
aI11
aI327
aI0
aI0
aI5
aI11
aI0
aI0
aI43
aI0
aI269
aI17
aI0
aI32
aI5
aI25
aI0
aI4
aI92
aI11
aI0
aI5
aI14
aI53
aI0
aI16
aI0
aI0
aI8
aI0
aI33
aI48
aI11
aI0
aI9
aI0
aI9
aI56
aI5
aI7
aI0
aI0
aI5
aI65
aI6
aI0
aI0
aI72
aI12
aI27
aI7
aI52
aI42
aI1289
aI4
aI5
aI10
aI0
aI15
aI27
aI0
aI109
aI409
aI37
aI20
aI2
aI7
aI0
aI11
aI6
aI18
aI13
aI68
aI1
aI22
aI217
aI0
aI13
aI8
aI0
aI25
aI0
aI13
aI53
aI11
aI0
aI5
aI16
aI502
aI0
aI5
aI8
aI20
aI0
aI5
aI167
aI0
aI2
aI0
aI13
aI467
aI0
aI6
aI1
aI24
aI0
aI9
aI200
aI120
aI18
aI0
aI12
aI273
aI0
aI11
aI2
aI0
aI6
aI0
aI0
aI0
aI12
aI166
aI30
aI0
aI8
aI5
aI64
aI8
aI7
aI1
aI5
aI217
aI7
aI68
aI25
aI3
aI11
aI0
aI1
aI0
aI6
aI91
aI5
aI9
aI1
aI237
aI5
aI6
aI5
aI291
aI6
aI7
aI11
aI73
aI16
aI35
aI18
aI0
aI14
aI0
aI5
aI5
aI5
aI12
aI11
aI0
aI52
aI10
aI10
aI69
aI21
aI11
aI0
aI5
aI10
aI36
aI1
aI8
aI5
aI12
aI81
aI0
aI0
aI7
aI13
aI29
aI0
aI7
aI76
aI0
aI50
aI2
aI9
aI11
aI241
aI9
aI0
aI4
aI88
aI26
aI10
aI5
aI6
aI1
aI286
aI6
aI8
aI2
aI0
aI9
aI147
aI11
aI77
aI9
aI4
aI10
aI9
aI0
aI1
aI108
aI285
aI0
aI0
aI6
aI2
aI7
aI173
aI5
aI18
aI87
aI0
aI87
aI0
aI2
aI4
aI8
aI5
aI0
aI0
aI5
aI0
aI0
aI27
aI1
aI115
aI0
aI58
aI0
aI4
aI49
aI14
aI7
aI0
aI0
aI16
aI39
aI172
aI106
aI9
aI0
aI0
aI0
aI258
aI205
aI5
aI22
aI8
aI1897
aI1
aI84
aI5
aI47
aI5
aI1
aI26
aI185
aI2
aI14
aI0
aI1
aI7
aI404
aI365
aI4
aI7
aI14
aI16
aI16
aI0
aI41
aI52
aI2
aI0
aI2
aI29
aI24
aI13
aI0
aI22
aI13
aI28
aI455
aI5
aI10
aI0
aI7
aI81
aI0
aI47
aI2
aI34
aI0
aI0
aI9
aI5
aI0
aI24
aI3
aI6
aI1
aI7
aI23
aI0
aI11
aI5
aI0
aI8
aI9
aI11
aI1
aI6
aI6
aI0
aI312
aI5
aI6
aI13
aI10
aI477
aI51
aI29
aI2
aI0
aI0
aI6
aI9
aI5
aI0
aI464
aI7
aI0
aI0
aI6
aI0
aI0
aI20
aI9
aI6
aI13
aI4
aI22
aI0
aI0
aI6
aI32
aI0
aI42
aI38
aI15
aI157
aI5
aI39
aI0
aI89
aI0
aI13
aI0
aI7
aI1
aI717
aI5
aI0
aI11
aI0
aI30
aI157
aI3
aI1107
aI0
aI6
aI4
aI22
aI126
aI16
aI8
aI2
aI1
aI0
aI0
aI2
aI186
aI152
aI32
aI18
aI59
aI14
aI7
aI68
aI15
aI9
aI2
aI18
aI9
aI125
aI9
aI109
aI5
aI0
aI5
aI0
aI0
aI0
aI49
aI5
aI444
aI2
aI32
aI5
aI423
aI0
aI1
aI0
aI7
aI3
aI9
aI4
aI11
aI18
aI12
aI753
aI95
aI0
aI14
aI519
aI346
aI20
aI7
aI6
aI0
aI11
aI15
aI201
aI5
aI322
aI26
aI63
aI25
aI237
aI9
aI251
aI5
aI0
aI15
aI6
aI11
aI5
aI13
aI47
aI73
aI14
aI1
aI0
aI113
aI164
aI5
aI10
aI0
aI9
aI3
aI1
aI10
aI61
aI41
aI12
aI0
aI0
aI0
aI7
aI12
aI0
aI35
aI19
aI0
aI0
aI10
aI8
aI7
aI19
aI796
aI20
aI8
aI0
aI5
aI1
aI115
aI278
aI0
aI7
aI0
aI225
aI0
aI5
aI9
aI165
aI46
aI26
aI63
aI14
aI74
aI18
aI11
aI64
aI10
aI7
aI9
aI232
aI17
aI230
aI0
aI0
aI1
aI1
aI51
aI9
aI13
aI0
aI15
aI19
aI6
aI1
aI10
aI8
aI44
aI15
aI200
aI95
aI5
aI23
aI0
aI0
aI0
aI0
aI445
aI10
aI62
aI1
aI15
aI5
aI155
aI30
aI2
aI89
aI1
aI0
aI9
aI0
aI1
aI5
aI48
aI51
aI14
aI0
aI2
aI38
aI58
aI15
aI5
aI83
aI0
aI31
aI10
aI10
aI5
aI29
aI0
aI4
aI0
aI87
aI19
aI2
aI65
aI6
aI13
aI6
aI11
aI25
aI7
aI38
aI110
aI9
aI0
aI0
aI0
aI0
aI0
aI6
aI57
aI26
aI25
aI195
aI30
aI5
aI423
aI0
aI0
aI22
aI0
aI7
aI5
aI29
aI18
aI9
aI0
aI0
aI34
aI3
aI35
aI32
aI306
aI4
aI21
aI193
aI8
aI62
aI7
aI11
aI49
aI7
aI0
aI11
aI9
aI3
aI306
aI19
aI6
aI48
aI296
aI3
aI14
aI1
aI1
aI16
aI9
aI7
aI6
aI0
aI10
aI0
aI106
aI5
aI1
aI11
aI0
aI5
aI2
aI14
aI4
aI0
aI6
aI0
aI0
aI6
aI620
aI8
aI12
aI14
aI0
aI0
aI8
aI0
aI3
aI0
aI503
aI2
aI5
aI17
aI0
aI8
aI0
aI75
aI5
aI12
aI33
aI26
aI6
aI11
aI0
aI5
aI352
aI0
aI117
aI13
aI9
aI5
aI5
aI84
aI6
aI150
aI36
aI2
aI0
aI4
aI5
aI14
aI7
aI8
aI3
aI12
aI8
aI0
aI1
aI11
aI262
aI100
aI1
aI7
aI633
aI1
aI61
aI28
aI5
aI14
aI7
aI0
aI111
aI27
aI34
aI70
aI21
aI6
aI10
aI47
aI33
aI37
aI2
aI7
aI98
aI11
aI10
aI38
aI6
aI8
aI6
aI11
aI1
aI50
aI7
aI16
aI10
aI9
aI2
aI7
aI0
aI10
aI0
aI18
aI6
aI22
aI7
aI19
aI6
aI268
aI190
aI35
aI12
aI329
aI294
aI6
aI0
aI432
aI0
aI9
aI43
aI9
aI0
aI204
aI2
aI933
aI62
aI0
aI9
aI0
aI5
aI10
aI8
aI2306
aI45
aI5
aI19
aI17
aI15
aI178
aI7
aI198
aI23
aI105
aI4
aI20
aI0
aI0
aI1
aI182
aI0
aI0
aI32
aI27
aI63
aI5
aI19
aI176
aI0
aI39
aI15
aI0
aI5
aI0
aI0
aI63
aI119
aI0
aI1
aI5
aI16
aI11
aI55
aI22
aI80
aI8
aI106
aI700
aI56
aI12
aI526
aI314
aI0
aI5
aI13
aI5
aI127
aI3
aI10
aI86
aI32
aI45
aI5
aI9
aI22
aI0
aI0
aI5
aI134
aI6
aI52
aI18
aI42
aI25
aI6
aI13
aI0
aI24
aI67
aI30
aI6
aI8
aI2
aI3
aI62
aI81
aI47
aI8
aI5
aI51
aI8
aI5
aI28
aI5
aI61
aI5
aI2
aI0
aI5952
aI0
aI9
aI3
aI10
aI0
aI16
aI23
aI0
aI24
aI0
aI21
aI6
aI2
aI172
aI5
aI32
aI560
aI5
aI5
aI31
aI14
aI0
aI12
aI5
aI10
aI10
aI16
aI6
aI0
aI5
aI0
aI6
aI5
aI0
aI16
aI0
aI37
aI0
aI6
aI161
aI12
aI8
aI24
aI0
aI1
aI6
aI37
aI1
aI1
aI20
aI19
aI7
aI12
aI18
aI0
aI10
aI21
aI77
aI1
aI34
aI0
aI5
aI7
aI32
aI0
aI14
aI83
aI1
aI7
aI0
aI6
aI0
aI8
aI267
aI15
aI0
aI0
aI9
aI2
aI10
aI11
aI9
aI8
aI25
aI5
aI0
aI11
aI8
aI5
aI16
aI19
aI27
aI4
aI0
aI11
aI7
aI3
aI9
aI14
aI3
aI438
aI0
aI12
aI14
aI3
aI1
aI0
aI10
aI8
aI2
aI5
aI8
aI18
aI7
aI0
aI2
aI5
aI1
aI122
aI5
aI19
aI76
aI3
aI4
aI12
aI12
aI0
aI8
aI0
aI899
aI10
aI212
aI10
aI102
aI0
aI12
aI5
aI11
aI157
aI19
aI31
aI9
aI45
aI82
aI4
aI16
aI10
aI81
aI45
aI60
aI6
aI17
aI0
aI0
aI4
aI0
aI17
aI13
aI0
aI112
aI0
aI1
aI42
aI0
aI5
aI22
aI57
aI105
aI0
aI11
aI5
aI2
aI0
aI40
aI20
aI25
aI10
aI0
aI0
aI28
aI117
aI9
aI17
aI12
aI153
aI56
aI8
aI196
aI1
aI24
aI5
aI5
aI31
aI4
aI3
aI4371
aI3
aI5
aI6
aI5
aI351
aI11
aI1
aI0
aI38
aI28
aI2
aI0
aI37
aI6
aI5
aI0
aI0
aI0
aI0
aI55
aI10
aI1
aI61
aI11
aI7
aI134
aI10
aI63
aI1
aI0
aI2
aI136
aI0
aI2
aI9
aI5
aI5
aI777
aI11
aI2
aI66
aI0
aI113
aI0
aI5
aI5
aI39
aI8
aI45
aI0
aI25
aI0
aI27
aI9
aI14
aI8
aI1
aI4
aI9
aI5
aI43
aI13
aI1
aI68
aI14
aI21
aI0
aI78
aI8
aI2
aI12
aI9
aI0
aI41
aI4
aI10
aI0
aI6
aI0
aI1114
aI57
aI0
aI0
aI11
aI1
aI7
aI0
aI9
aI0
aI55
aI22
aI5
aI25
aI16
aI74
aI77
aI69
aI35
aI30
aI9
aI0
aI0
aI1
aI5
aI4
aI0
aI0
aI153
aI0
aI363
aI0
aI0
aI23
aI6
aI20
aI6
aI13
aI0
aI32
aI6
aI0
aI25
aI0
aI11
aI0
aI0
aI0
aI15
aI42
aI5
aI0
aI5
aI0
aI0
aI5
aI6
aI54
aI2
aI75
aI10
aI8
aI17
aI10
aI23
aI0
aI1
aI38
aI7
aI12
aI14
aI8
aI46
aI1
aI7
aI24
aI14
aI47
aI60
aI160
aI9
aI0
aI0
aI351
aI0
aI58
aI8
aI11
aI20
aI105
aI0
aI39
aI21
aI7
aI3
aI0
aI17
aI0
aI0
aI20
aI0
aI8
aI0
aI406
aI18
aI5
aI7
aI34
aI0
aI0
aI0
aI13
aI296
aI25
aI37
aI0
aI6
aI1
aI0
aI17
aI0
aI15
aI186
aI0
aI83
aI196
aI550
aI9
aI6
aI0
aI11
aI0
aI0
aI7
aI0
aI8
aI0
aI58
aI27
aI20
aI15
aI0
aI0
aI12
aI0
aI0
aI172
aI0
aI17
aI0
aI11
aI222
aI32
aI4
aI146
aI20
aI0
aI807
aI8
aI0
aI7
aI916
aI0
aI0
aI0
aI2
aI276
aI67
aI134
aI59
aI13
aI64
aI3
aI10
aI64
aI5
aI0
aI19
aI10
aI50
aI122
aI0
aI52
aI0
aI11
aI22
aI143
aI5
aI5
aI1
aI10
aI0
aI8
aI8
aI3
aI10
aI0
aI16
aI1
aI18
aI1
aI7
aI26
aI0
aI6
aI11
aI14
aI13
aI145
aI0
aI42
aI6
aI0
aI1
aI0
aI373
aI148
aI0
aI20
aI1
aI41
aI5
aI3
aI119
aI24
aI32
aI133
aI27
aI20
aI0
aI0
aI129
aI132
aI58
aI23
aI10
aI56
aI7
aI9
aI38
aI0
aI1
aI0
aI0
aI79
aI19
aI0
aI79
aI1148
aI21
aI5
aI72
aI261
aI0
aI29
aI0
aI6
aI11
aI63
aI16
aI41
aI5
aI15
aI0
aI71
aI7
aI6
aI7
aI0
aI7
aI23
aI103
aI36
aI0
aI0
aI5
aI0
aI0
aI157
aI50
aI3
aI6
aI14
aI23
aI3
aI77
aI0
aI138
aI9
aI6
aI5
aI0
aI2
aI22
aI7
aI20
aI0
aI9
aI4
aI0
aI39
aI0
aI0
aI0
aI6
aI12
aI10
aI114
aI0
aI241
aI48
aI11
aI34
aI29
aI8
aI444
aI0
aI0
aI31
aI0
aI6
aI0
aI10
aI1
aI0
aI10
aI0
aI27
aI19
aI8
aI0
aI524
aI22
aI18
aI13
aI7
aI4
aI2
aI161
aI10
aI0
aI8
aI2
aI39
aI6
aI1
aI7
aI22
aI5
aI2
aI14
aI13
aI0
aI2
aI0
aI0
aI0
aI2
aI0
aI4
aI0
aI86
aI8
aI191
aI3
aI4
aI1447
aI0
aI18
aI4
aI1
aI2
aI9
aI158
aI0
aI0
aI0
aI0
aI0
aI47
aI69
aI173
aI28
aI34
aI0
aI32
aI7
aI19
aI0
aI21
aI2
aI21
aI8
aI1
aI0
aI8
aI0
aI59
aI5
aI3
aI21
aI6
aI8
aI11
aI7
aI106
aI0
aI0
aI747
aI8
aI15
aI1103
aI14
aI36
aI23
aI10
aI9
aI6
aI0
aI0
aI11
aI0
aI47
aI48
aI30
aI72
aI5
aI912
aI1340
aI91
aI6
aI1
aI137
aI1898
aI4
aI0
aI3
aI19
aI4
aI30
aI0
aI58
aI120
aI1
aI40
aI5
aI5
aI14
aI1
aI30
aI2
aI7
aI198
aI0
aI3
aI18
aI14
aI47
aI7
aI38
aI58
aI8
aI5
aI16
aI14
aI5
aI31
aI1
aI0
aI4
aI4
aI14
aI14
aI0
aI0
aI37
aI20
aI0
aI41
aI2
aI12
aI9
aI14
aI31
aI0
aI0
aI0
aI68
aI14
aI7
aI0
aI15
aI0
aI0
aI85
aI328
aI0
aI8
aI10
aI19
aI17
aI34
aI0
aI6
aI37
aI117
aI10
aI51
aI9
aI0
aI149
aI45
aI0
aI13
aI148
aI12
aI6
aI11
aI16
aI0
aI65
aI0
aI6
aI23
aI6
aI0
aI0
aI71
aI6
aI106
aI14
aI71
aI4
aI30
aI7
aI115
aI35
aI10
aI2
aI15
aI5
aI0
aI21
aI8
aI5
aI0
aI145
aI2
aI0
aI18
aI0
aI11
aI190
aI0
aI5
aI43
aI13
aI11
aI5
aI5
aI6
aI16
aI11
aI8
aI0
aI8
aI6
aI10
aI1475
aI0
aI0
aI0
aI80
aI7
aI176
aI0
aI396
aI3
aI16
aI44
aI7
aI25
aI0
aI10
aI208
aI1
aI133
aI0
aI17
aI4
aI10
aI9
aI0
aI9
aI0
aI8
aI35
aI0
aI10
aI9
aI6
aI6
aI13
aI6
aI13
aI38
aI56
aI52
aI0
aI39
aI15
aI19
aI12
aI3
aI5
aI0
aI0
aI16
aI43
aI5
aI0
aI18
aI48
aI56
aI855
aI10
aI1
aI0
aI46
aI2
aI182
aI0
aI29
aI52
aI38
aI0
aI7
aI16
aI7
aI4
aI25
aI237
aI9
aI7
aI18
aI10
aI6
aI61
aI20
aI0
aI1
aI33
aI6
aI7
aI137
aI5
aI9
aI12
aI2
aI1
aI9
aI6
aI0
aI6
aI0
aI6
aI18
aI3
aI5
aI202
aI5
aI84
aI1
aI15
aI2
aI48
aI6
aI8
aI6
aI203
aI5
aI7
aI0
aI51
aI0
aI0
aI5
aI0
aI0
aI3
aI171
aI0
aI7
aI0
aI10
aI6
aI5
aI111
aI11
aI20
aI32
aI0
aI104
aI74
aI8
aI66
aI75
aI0
aI5
aI63
aI0
aI38
aI14
aI0
aI119
aI22
aI12
aI12
aI5
aI18
aI164
aI24
aI0
aI16
aI13
aI13
aI7
aI8
aI5
aI0
aI3
aI68
aI7
aI6
aI0
aI15
aI6
aI0
aI14
aI0
aI3
aI0
aI0
aI5
aI207
aI6
aI6
aI12
aI227
aI10
aI95
aI4
aI26
aI171
aI7
aI0
aI1
aI0
aI0
aI39
aI0
aI1
aI8
aI9
aI9
aI25
aI684
aI0
aI0
aI13
aI0
aI12
aI0
aI471
aI14
aI0
aI0
aI19
aI86
aI9
aI0
aI14
aI0
aI32
aI0
aI6
aI3
aI8
aI5
aI11
aI14
aI16
aI49
aI42
aI10
aI23
aI25
aI8
aI30
aI45
aI11
aI11
aI6
aI38
aI6
aI31
aI2
aI55
aI14
aI33
aI86
aI3
aI14
aI24
aI9
aI84
aI6
aI6
aI15
aI5
aI0
aI10
aI849
aI0
aI59
aI0
aI0
aI6
aI13
aI7
aI8
aI60
aI34
aI0
aI21
aI0
aI3
aI114
aI0
aI0
aI49
aI0
aI13
aI28
aI278
aI19
aI10
aI14
aI67
aI45
aI7
aI6
aI569
aI9
aI156
aI0
aI24
aI11
aI5
aI18
aI9
aI14
aI9
aI3
aI0
aI0
aI14
aI1
aI13
aI0
aI2
aI0
aI15
aI1
aI583
aI61
aI18
aI13
aI1
aI584
aI0
aI8
aI5
aI15
aI5
aI17
aI14
aI2
aI57
aI0
aI33
aI5
aI31
aI7
aI1
aI3
aI0
aI244
aI8
aI0
aI20
aI2
aI1
aI23
aI13
aI56
aI9
aI90
aI10
aI0
aI39
aI0
aI4
aI11
aI32
aI9
aI19
aI21
aI11
aI14
aI13
aI5
aI5
aI1
aI250
aI0
aI0
aI31
aI121
aI22
aI0
aI16
aI19
aI57
aI0
aI223
aI827
aI20
aI13
aI11
aI3
aI0
aI7
aI0
aI36
aI16
aI13
aI21
aI0
aI47
aI1
aI12
aI65
aI263
aI7
aI0
aI0
aI17
aI48
aI1050
aI12
aI5
aI60
aI5
aI9
aI58
aI142
aI14
aI20
aI2
aI9
aI0
aI8
aI0
aI2
aI14
aI11
aI13
aI1
aI18
aI2
aI1
aI0
aI12
aI2
aI0
aI15
aI6
aI0
aI8
aI0
aI8
aI82
aI0
aI1
aI564
aI39
aI6
aI0
aI23
aI16
aI175
aI5
aI51
aI42
aI5
aI128
aI65
aI222
aI0
aI55
aI0
aI6
aI8
aI8
aI5
aI1
aI19
aI2
aI39
aI8
aI250
aI5
aI0
aI126
aI197
aI34
aI103
aI19
aI7
aI2
aI4
aI46
aI9
aI72
aI6
aI0
aI0
aI5
aI14
aI7
aI60
aI20
aI2
aI19
aI7
aI0
aI23
aI12
aI7
aI63
aI0
aI13
aI13
aI10
aI0
aI0
aI21
aI3
aI0
aI0
aI6
aI6
aI0
aI199
aI19
aI76
aI230
aI0
aI8
aI7
aI0
aI1
aI430
aI30
aI6
aI44
aI5
aI150
aI9
aI35
aI0
aI10
aI0
aI0
aI0
aI21
aI0
aI105
aI1
aI70
aI6
aI18
aI20
aI10
aI0
aI1
aI156
aI28
aI185
aI7
aI4
aI1
aI28
aI6
aI1
aI1
aI11
aI16
aI26
aI0
aI11
aI1
aI104
aI16
aI27
aI2
aI15
aI0
aI120
aI2
aI11
aI11
aI21
aI17
aI24
aI0
aI81
aI0
aI35
aI6
aI54
aI5
aI182
aI2
aI4
aI235
aI16
aI0
aI5
aI15
aI12
aI98
aI0
aI26
aI70
aI5242
aI13
aI9
aI8
aI28
aI1
aI7
aI1036
aI2
aI12
aI37
aI37
aI0
aI30
aI21
aI11
aI0
aI0
aI9
aI57
aI104
aI55
aI35
aI5
aI0
aI0
aI11
aI0
aI38
aI60
aI467
aI0
aI8
aI27
aI12
aI1
aI346
aI84
aI7
aI9
aI1
aI7
aI1
aI14
aI98
aI5
aI9
aI0
aI6
aI5
aI1
aI8
aI35
aI8
aI9
aI87
aI0
aI1
aI54
aI162
aI19
aI16
aI11
aI1
aI0
aI0
aI18
aI94
aI14
aI22
aI8
aI0
aI0
aI3
aI3
aI10
aI7
aI0
aI0
aI5
aI0
aI9
aI0
aI2115
aI57
aI15
aI0
aI0
aI1
aI200
aI0
aI57
aI1
aI3
aI0
aI5
aI0
aI0
aI0
aI13
aI42
aI303
aI6
aI46
aI5
aI0
aI172
aI21
aI0
aI0
aI0
aI34
aI5
aI8
aI57
aI10
aI0
aI5
aI1
aI6
aI5
aI193
aI17
aI11
aI0
aI0
aI5
aI30
aI5
aI3
aI64
aI39
aI6
aI7
aI30
aI3
aI20
aI3
aI18
aI1
aI0
aI0
aI5
aI8
aI0
aI0
aI32
aI0
aI107
aI6
aI5
aI3
aI0
aI0
aI0
aI188
aI35
aI2
aI0
aI5
aI0
aI106
aI3
aI46
aI10
aI5
aI13
aI0
aI6
aI14
aI16
aI64
aI0
aI0
aI1
aI95
aI0
aI44
aI5
aI5
aI314
aI35
aI7
aI76
aI0
aI0
aI6
aI0
aI11
aI6
aI0
aI11
aI6
aI3
aI1
aI34
aI0
aI2
aI0
aI0
aI0
aI154
aI7
aI96
aI15
aI0
aI0
aI16
aI0
aI3
aI5
aI0
aI167
aI0
aI128
aI5
aI0
aI1
aI138
aI0
aI0
aI57
aI21
aI1
aI76
aI28
aI0
aI31
aI456
aI1
aI4
aI325
aI28
aI32
aI10
aI481
aI11
aI30
aI6
aI0
aI89
aI20
aI3
aI0
aI7
aI8
aI35
aI0
aI94
aI0
aI206
aI41
aI9
aI24
aI61
aI0
aI6
aI0
aI3
aI8
aI28
aI8
aI32
aI6
aI24
aI25
aI2
aI39
aI11
aI84
aI34
aI0
aI23
aI4
aI14
aI5
aI0
aI5
aI191
aI41
aI8
aI40
aI18
aI6
aI14
aI1
aI0
aI70
aI210
aI7
aI8
aI39
aI6
aI3
aI23
aI0
aI46
aI39
aI11
aI0
aI17
aI15
aI76
aI1
aI3
aI5
aI8
aI15
aI5
aI3893
aI0
aI1891
aI121
aI376
aI77
aI72
aI5
aI0
aI8
aI5
aI24
aI19
aI405
aI5
aI0
aI0
aI412
aI0
aI104
aI12
aI9
aI9
aI22
aI6
aI1
aI4
aI0
aI2
aI1
aI5
aI35
aI209
aI377
aI10
aI0
aI6
aI13
aI96
aI0
aI10
aI0
aI10
aI252
aI7
aI19
aI106
aI15
aI49
aI6
aI25
aI0
aI23
aI0
aI0
aI6
aI8
aI0
aI21
aI97
aI0
aI12
aI309
aI0
aI0
aI0
aI0
aI59
aI12
aI0
aI2
aI2
aI0
aI17
aI9
aI1
aI0
aI203
aI0
aI9
aI3
aI21
aI46
aI16
aI29
aI5
aI0
aI16
aI0
aI0
aI336
aI1314
aI0
aI6
aI9
aI0
aI28
aI7
aI10
aI43
aI0
aI2
aI5
aI5
aI0
aI0
aI1
aI0
aI9
aI5
aI7
aI0
aI11
aI9
aI10
aI15
aI60
aI10
aI22
aI11
aI10
aI21
aI6
aI0
aI0
aI101
aI5
aI0
aI5
aI5
aI23
aI0
aI6
aI14
aI2
aI14
aI32
aI0
aI7
aI83
aI0
aI0
aI80
aI6
aI1
aI1
aI262
aI150
aI0
aI9
aI253
aI0
aI14
aI89
aI0
aI393
aI0
aI0
aI11
aI0
aI7
aI12
aI10
aI3
aI11
aI0
aI0
aI7
aI13
aI6
aI21
aI0
aI14
aI7
aI8
aI7
aI5
aI4
aI33
aI8
aI0
aI5
aI0
aI0
aI22
aI22
aI14
aI0
aI52
aI24
aI0
aI16
aI16
aI11
aI81
aI6
aI0
aI71
aI11
aI45
aI4
aI0
aI0
aI9
aI0
aI18
aI13
aI19
aI19
aI5
aI0
aI28
aI120
aI1
aI26
aI5
aI10
aI0
aI0
aI5
aI0
aI0
aI12
aI4
aI0
aI0
aI13
aI134
aI38
aI8
aI0
aI40
aI10
aI1
aI81
aI2
aI11
aI9
aI1
aI292
aI130
aI6
aI0
aI0
aI9
aI5
aI5
aI31
aI25
aI240
aI1
aI81
aI4
aI9
aI4
aI7
aI31
aI65
aI2
aI0
aI68
aI13
aI17
aI35
aI0
aI3
aI181
aI6
aI81
aI5
aI57
aI97
aI3
aI7
aI5
aI7
aI7
aI23
aI0
aI139
aI6
aI0
aI13
aI111
aI1
aI405
aI0
aI5
aI574
aI824
aI0
aI30
aI0
aI15
aI0
aI0
aI5
aI19
aI4
aI74
aI6
aI11
aI0
aI0
aI0
aI15
aI10
aI13
aI63
aI7
aI6
aI7
aI9
aI0
aI7
aI13
aI5
aI14
aI66
aI1
aI524
aI10
aI8
aI85
aI16
aI40
aI5
aI10
aI52
aI13
aI13
aI22
aI8
aI88
aI0
aI9
aI1
aI16
aI1
aI1
aI67
aI19
aI20
aI131
aI91
aI0
aI23
aI93
aI0
aI6
aI0
aI9
aI44
aI0
aI6
aI0
aI0
aI49
aI0
aI22
aI5
aI8
aI0
aI5
aI11
aI1
aI5
aI23
aI9
aI21
aI20
aI14
aI434
aI105
aI5
aI28
aI6
aI5
aI3
aI6
aI3
aI3
aI7
aI98
aI58
aI19
aI63
aI5
aI11
aI46
aI0
aI11
aI236
aI77
aI35
aI108
aI5
aI312
aI0
aI0
aI127
aI0
aI5
aI8
aI10
aI9
aI0
aI0
aI7
aI5
aI14
aI120
aI6
aI48
aI33
aI1
aI17
aI150
aI14
aI2
aI0
aI15
aI43
aI73
aI6
aI12
aI14
aI7
aI13
aI7
aI23
aI30
aI0
aI68
aI24
aI9
aI1
aI1
aI6
aI7
aI27
aI6
aI20
aI19
aI16
aI11
aI51
aI13
aI12
aI8
aI10
aI474
aI0
aI8
aI7
aI8
aI969
aI12
aI0
aI56
aI17
aI11
aI36
aI106
aI7
aI6
aI58
aI131
aI22
aI24
aI24
aI2
aI26
aI9
aI123
aI0
aI0
aI17
aI16
aI3
aI30
aI29
aI106
aI48
aI37
aI24
aI14
aI60
aI19
aI38
aI7
aI9
aI11
aI5
aI383
aI61
aI13
aI17
aI12
aI0
aI7
aI2
aI0
aI85
aI702
aI8
aI3
aI0
aI55
aI6
aI0
aI14
aI10
aI5
aI0
aI19
aI20
aI49
aI0
aI12
aI0
aI12
aI25
aI87
aI19
aI20
aI15
aI2
aI28
aI32
aI7
aI0
aI5
aI545
aI70
aI22
aI2
aI91
aI0
aI4
aI0
aI86
aI228
aI0
aI0
aI13
aI10
aI5
aI0
aI5
aI23
aI0
aI0
aI0
aI17
aI11
aI0
aI4
aI0
aI13
aI44
aI6
aI10
aI12
aI7
aI0
aI0
aI13
aI132
aI0
aI102
aI0
aI0
aI8
aI53
aI25
aI8
aI9
aI2
aI587
aI104
aI7
aI12
aI5
aI2
aI5
aI3
aI3
aI7
aI28
aI40
aI1
aI1
aI6
aI174
aI8
aI0
aI5
aI5
aI17
aI0
aI84
aI1952
aI27
aI0
aI79
aI40
aI12
aI5
aI10
aI19
aI6
aI5
aI0
aI23
aI9
aI57
aI88
aI2
aI0
aI112
aI9
aI5
aI7
aI15
aI8
aI8
aI125
aI0
aI8
aI2
aI88
aI224
aI4
aI0
aI5
aI10
aI12
aI10
aI4
aI43
aI0
aI6
aI26
aI17
aI14
aI2
aI1
aI8
aI54
aI69
aI5
aI0
aI30
aI28
aI10
aI19
aI1
aI331
aI0
aI22
aI5
aI7
aI32
aI7
aI6
aI17
aI18
aI8
aI0
aI228
aI0
aI8
aI0
aI0
aI2
aI67
aI16
aI9
aI2
aI7
aI1
aI12
aI47
aI0
aI0
aI6
aI6
aI42
aI10
aI53
aI19
aI20
aI5
aI0
aI251
aI21
aI6
aI0
aI300
aI20
aI0
aI5
aI20
aI15
aI11
aI569
aI9
aI44
aI617
aI0
aI6
aI154
aI15
aI20
aI139
aI28
aI24
aI0
aI0
aI17
aI0
aI12
aI2
aI17
aI3
aI5
aI0
aI19
aI12
aI9
aI50
aI6
aI0
aI6
aI6
aI7
aI0
aI10
aI5
aI29
aI4
aI7
aI5
aI1
aI75
aI40
aI0
aI10
aI5
aI9
aI61
aI0
aI3
aI1
aI6
aI0
aI205
aI5
aI0
aI0
aI43
aI8
aI0
aI0
aI5
aI296
aI2
aI10
aI53
aI31
aI5
aI81
aI24
aI30
aI9
aI68
aI18
aI1
aI131
aI0
aI6
aI6
aI0
aI23
aI1
aI1
aI6
aI11
aI428
aI0
aI5
aI26
aI1
aI5
aI72
aI24
aI9
aI0
aI20
aI5
aI60
aI0
aI18
aI19
aI17
aI14
aI0
aI3
aI5
aI56
aI14
aI12
aI84
aI0
aI17
aI0
aI86
aI0
aI27
aI5
aI10
aI0
aI14
aI6
aI12
aI48
aI35
aI3
aI0
aI33
aI381
aI8
aI73
aI26
aI162
aI6
aI2
aI0
aI3
aI14
aI17
aI0
aI5
aI8
aI141
aI3
aI8
aI1
aI184
aI0
aI0
aI12
aI14
aI0
aI1
aI15
aI243
aI8
aI14
aI0
aI0
aI113
aI11
aI7
aI9
aI5
aI11
aI327
aI15
aI5
aI2
aI15
aI15
aI0
aI6
aI4
aI2
aI5
aI9
aI0
aI6
aI5
aI5
aI30
aI2
aI14
aI0
aI194
aI0
aI0
aI0
aI14
aI0
aI21
aI0
aI9
aI35
aI20
aI18
aI8
aI19
aI90
aI0
aI11
aI32
aI2
aI23
aI2
aI6
aI5
aI4
aI19
aI12
aI27
aI4
aI8
aI0
aI1
aI36
aI2
aI5
aI6
aI7
aI6
aI10
aI12
aI23
aI153
aI41
aI8
aI1
aI6
aI0
aI48
aI57
aI662
aI0
aI12
aI124
aI6
aI9
aI121
aI36
aI0
aI43
aI5
aI0
aI2
aI181
aI0
aI30
aI23
aI3
aI153
aI48
aI38
aI920
aI0
aI27
aI0
aI3
aI7
aI0
aI6
aI8
aI12
aI7
aI38
aI0
aI0
aI149
aI0
aI0
aI2
aI0
aI0
aI6
aI14
aI18
aI12
aI18
aI7
aI10
aI12
aI34
aI30
aI0
aI2
aI20
aI0
aI18
aI2318
aI75
aI22
aI4
aI0
aI7
aI9
aI19
aI764
aI0
aI123
aI58
aI0
aI15
aI0
aI107
aI26
aI71
aI14
aI6
aI2
aI39
aI0
aI33
aI0
aI34
aI0
aI13
aI4
aI36
aI0
aI58
aI0
aI2
aI108
aI6
aI6
aI15
aI10
aI10
aI64
aI28
aI5
aI48
aI24
aI369
aI8
aI6
aI0
aI3
aI0
aI2
aI5
aI5
aI33
aI10
aI2
aI109
aI9
aI15
aI31
aI149
aI10
aI34
aI22
aI62
aI9
aI0
aI2
aI0
aI27
aI204
aI7
aI0
aI5
aI7
aI0
aI19
aI5
aI10
aI10
aI175
aI11
aI0
aI0
aI7
aI7
aI5
aI199
aI12
aI103
aI5
aI0
aI94
aI0
aI0
aI3
aI0
aI193
aI6
aI54
aI446
aI14
aI345
aI10
aI15
aI0
aI122
aI2
aI22
aI0
aI11
aI63
aI30
aI5
aI10
aI1
aI0
aI13
aI3
aI34
aI18
aI55
aI0
aI3
aI30
aI493
aI7
aI0
aI6
aI32
aI1
aI41
aI39
aI0
aI13
aI272
aI11
aI32
aI24
aI13
aI0
aI42
aI2
aI0
aI19
aI0
aI104
aI1733
aI15
aI0
aI0
aI53
aI16
aI4
aI9
aI46
aI0
aI0
aI0
aI49
aI15
aI0
aI9
aI40
aI20
aI5
aI191
aI7
aI0
aI207
aI0
aI15
aI429
aI15
aI7
aI0
aI7
aI11
aI7
aI65
aI6
aI5
aI95
aI0
aI0
aI6
aI26
aI19
aI39
aI20
aI74
aI19
aI18
aI78
aI27
aI20
aI0
aI0
aI16
aI52
aI0
aI0
aI29
aI26
aI9
aI16
aI16
aI0
aI37
aI0
aI21
aI8
aI8
aI9
aI31
aI8
aI3
aI23
aI245
aI68
aI3
aI8
aI40
aI0
aI9
aI7
aI5
aI0
aI3
aI0
aI10
aI0
aI5
aI6
aI7
aI2
aI27
aI12
aI7
aI19
aI0
aI3
aI19
aI0
aI0
aI18
aI119
aI7
aI146
aI2
aI49
aI6
aI5
aI16
aI66
aI7
aI11
aI9
aI0
aI11
aI0
aI7
aI29
aI0
aI0
aI8
aI6
aI30
aI216
aI4
aI1
aI29
aI5
aI7
aI15
aI16
aI43
aI40
aI4
aI31
aI2
aI12
aI0
aI3
aI0
aI0
aI1
aI23
aI2
aI19
aI20
aI12
aI11
aI13
aI0
aI2
aI11
aI1
aI5
aI28
aI232
aI4
aI1
aI38
aI138
aI98
aI10
aI6
aI60
aI35
aI0
aI11
aI0
aI0
aI2
aI0
aI18
aI5
aI0
aI0
aI0
aI6
aI0
aI9
aI0
aI14
aI0
aI14
aI8
aI16
aI0
aI6
aI0
aI132
aI186
aI17
aI7
aI26
aI2
aI1
aI1
aI0
aI67
aI0
aI35
aI18
aI0
aI9
aI5
aI10
aI11
aI10
aI27
aI6
aI28
aI21
aI5
aI37
aI0
aI24
aI302
aI37
aI30
aI29
aI11
aI0
aI159
aI11
aI106
aI0
aI0
aI158
aI0
aI464
aI181
aI313
aI13
aI134
aI5
aI0
aI0
aI65
aI13
aI0
aI0
aI146
aI6
aI5
aI38
aI8
aI1
aI0
aI2
aI0
aI0
aI488
aI0
aI5
aI0
aI0
aI1
aI7
aI6
aI34
aI69
aI19
aI11
aI1
aI14
aI181
aI0
aI24
aI0
aI6
aI35
aI0
aI92
aI9
aI6
aI0
aI135
aI10
aI10
aI9
aI2
aI6
aI15
aI18
aI9
aI1
aI18
aI133
aI46
aI27
aI0
aI8
aI1
aI4
aI68
aI7
aI0
aI62
aI0
aI10
aI0
aI17
aI56
aI1
aI13
aI29
aI0
aI24
aI14
aI10
aI0
aI28
aI39
aI158
aI6
aI470
aI259
aI0
aI0
aI99
aI56
aI2
aI3
aI0
aI0
aI10
aI10
aI0
aI20
aI213
aI18
aI20
aI1
aI27
aI0
aI15
aI947
aI6
aI5
aI0
aI1
aI0
aI0
aI0
aI5
aI5
aI12
aI0
aI280
aI1
aI7
aI10
aI5
aI5
aI2
aI21
aI0
aI11
aI512
aI0
aI6
aI13
aI168
aI24
aI6
aI564
aI5
aI4
aI0
aI0
aI57
aI2
aI0
aI5
aI2
aI0
aI498
aI42
aI0
aI2
aI19
aI10
aI0
aI25
aI9
aI39
aI29
aI26
aI0
aI0
aI5
aI2
aI5
aI2
aI1
aI9
aI10
aI1
aI76
aI5
aI55
aI203
aI0
aI84
aI8
aI0
aI21
aI11
aI31
aI21
aI0
aI82
aI54
aI24
aI11
aI5
aI4
aI0
aI0
aI50
aI12
aI124
aI45
aI6
aI0
aI9
aI12
aI5
aI5
aI1
aI15
aI122
aI5
aI0
aI0
aI1
aI27
aI91
aI574
aI28
aI0
aI7
aI0
aI0
aI0
aI0
aI266
aI0
aI3
aI55
aI24
aI0
aI111
aI5
aI7
aI44
aI0
aI10
aI0
aI0
aI6
aI23
aI7
aI0
aI0
aI12
aI0
aI31
aI0
aI7
aI0
aI91
aI24
aI0
aI3
aI1
aI6
aI11
aI33
aI2
aI0
aI0
aI244
aI6
aI3
aI8
aI0
aI20
aI0
aI5
aI13
aI11
aI0
aI12
aI15
aI0
aI17
aI3
aI1
aI0
aI6
aI89
aI0
aI8
aI7
aI46
aI2
aI11
aI325
aI76
aI20
aI21
aI9
aI15
aI114
aI44
aI11
aI0
aI0
aI18
aI29
aI3
aI10
aI5
aI119
aI52
aI8
aI6
aI0
aI0
aI29
aI40
aI5
aI6
aI0
aI0
aI700
aI1
aI6
aI0
aI2
aI1
aI17
aI3
aI37
aI0
aI7
aI5
aI46
aI8
aI10
aI0
aI8
aI11
aI0
aI194
aI1
aI7
aI5
aI30
aI20
aI51
aI0
aI2
aI21
aI6
aI2
aI28
aI9
aI10
aI7
aI124
aI17
aI21
aI14
aI31
aI7
aI2
aI1
aI47
aI122
aI30
aI0
aI0
aI1
aI48
aI7
aI7
aI106
aI11
aI5
aI3
aI0
aI5
aI7
aI22
aI0
aI8
aI19
aI9
aI529
aI9
aI0
aI5
aI11
aI14
aI9
aI8
aI10
aI6
aI9
aI5
aI34
aI8
aI0
aI11
aI11
aI85
aI0
aI7
aI30
aI0
aI0
aI5
aI100
aI19
aI9
aI0
aI0
aI10
aI35
aI269
aI12
aI6
aI129
aI18
aI13
aI27
aI8
aI1
aI13
aI29
aI34
aI37
aI1
aI7
aI0
aI98
aI0
aI7
aI9
aI14
aI9
aI0
aI11
aI44
aI8
aI3
aI0
aI5
aI0
aI116
aI3
aI0
aI249
aI0
aI32
aI0
aI2
aI7
aI92
aI7
aI388
aI0
aI6
aI1482
aI27
aI5
aI12
aI0
aI14
aI0
aI108
aI174
aI56
aI0
aI152
aI3
aI0
aI15
aI0
aI2
aI1
aI0
aI13
aI17
aI0
aI26
aI3
aI8
aI10
aI143
aI0
aI21
aI6
aI8
aI0
aI0
aI30
aI12
aI0
aI0
aI0
aI8
aI26
aI0
aI0
aI0
aI0
aI5
aI5
aI138
aI19
aI7
aI1
aI3
aI49
aI0
aI88
aI164
aI5
aI214
aI9
aI3
aI0
aI0
aI1
aI35
aI12
aI20
aI3
aI5
aI6
aI0
aI0
aI5
aI0
aI2
aI0
aI7
aI42
aI5
aI0
aI0
aI10
aI6
aI65
aI70
aI8
aI1
aI17
aI27
aI468
aI0
aI16
aI5
aI6
aI20
aI15
aI86
aI0
aI2
aI2
aI11
aI5
aI0
aI0
aI36
aI2
aI6
aI1
aI6
aI0
aI151
aI6
aI2
aI3
aI75
aI0
aI24
aI7
aI17
aI16
aI5
aI0
aI1
aI0
aI3
aI162
aI2
aI7
aI5
aI0
aI23
aI63
aI2
aI0
aI12
aI25
aI5
aI5
aI2
aI3
aI0
aI9
aI122
aI6
aI33
aI8
aI2
aI1
aI0
aI11
aI1
aI6
aI101
aI0
aI3
aI100
aI0
aI4
aI23
aI43
aI10
aI0
aI14
aI0
aI258
aI0
aI5
aI214
aI612
aI35
aI16
aI27
aI12
aI3
aI216
aI0
aI15
aI63
aI1
aI0
aI0
aI34
aI5
aI0
aI2
aI0
aI0
aI127
aI13
aI6
aI34
aI159
aI10
aI7
aI32
aI6
aI5
aI5
aI8
aI20
aI27
aI0
aI10
aI0
aI16
aI0
aI34
aI0
aI6
aI2
aI1
aI0
aI9
aI0
aI8
aI12
aI7
aI5
aI0
aI7
aI0
aI10
aI0
aI0
aI18
aI18
aI15
aI0
aI42
aI5
aI17
aI0
aI0
aI6
aI0
aI228
aI8
aI16
aI14
aI29
aI1
aI6
aI0
aI3
aI5
aI1
aI10
aI6
aI0
aI6
aI90
aI85
aI2
aI0
aI6
aI13
aI4
aI2
aI130
aI0
aI0
aI74
aI1
aI23
aI0
aI9
aI24
aI0
aI0
aI0
aI0
aI25
aI28
aI40
aI47
aI31
aI5
aI4
aI0
aI0
aI115
aI11
aI58
aI0
aI86
aI11
aI0
aI83
aI7
aI5
aI21
aI337
aI0
aI17
aI6
aI7
aI19
aI5
aI8
aI6
aI32
aI10
aI121
aI125
aI2
aI1
aI91
aI11
aI0
aI7
aI38
aI58
aI6
aI6
aI23
aI33
aI9
aI6
aI15
aI0
aI13
aI0
aI19
aI0
aI42
aI65
aI196
aI37
aI0
aI40
aI74
aI6
aI6
aI31
aI22
aI10
aI0
aI9
aI0
aI0
aI33
aI1
aI300
aI86
aI5
aI84
aI211
aI11
aI34
aI21
aI0
aI5
aI5
aI64
aI6
aI7
aI6
aI6
aI18
aI8
aI0
aI7
aI45
aI196
aI0
aI0
aI0
aI65
aI34
aI13
aI14
aI8
aI1215
aI0
aI307
aI6
aI8
aI4
aI11
aI19
aI0
aI1273
aI1
aI233
aI10
aI0
aI5
aI484
aI0
aI106
aI5
aI48
aI0
aI9
aI71
aI0
aI33
aI115
aI22
aI37
aI6
aI32
aI0
aI0
aI7
aI8
aI75
aI0
aI2
aI0
aI0
aI0
aI18
aI791
aI72
aI11
aI0
aI0
aI5
aI12
aI0
aI144
aI1012
aI32
aI3
aI21
aI0
aI21
aI9
aI5
aI961
aI5
aI7
aI0
aI1
aI0
aI123
aI15
aI6
aI6
aI53
aI11
aI0
aI0
aI0
aI0
aI0
aI34
aI9
aI0
aI4
aI39
aI0
aI3
aI19
aI149
aI75
aI41
aI9
aI5
aI2
aI15
aI5
aI9
aI3
aI17
aI27
aI13
aI0
aI16
aI45
aI7
aI21
aI0
aI0
aI13
aI6
aI7
aI9
aI14
aI24
aI5
aI10
aI2
aI45
aI93
aI1249
aI1
aI6
aI6
aI11
aI62
aI9
aI9
aI4
aI0
aI7
aI0
aI10
aI136
aI0
aI0
aI13
aI14
aI6
aI0
aI6
aI55
aI5
aI1
aI22
aI23
aI3
aI33
aI5
aI8
aI280
aI5
aI23
aI25
aI55
aI0
aI183
aI29
aI12
aI0
aI7
aI7
aI9
aI150
aI0
aI2
aI10
aI9
aI0
aI0
aI8
aI8
aI196
aI0
aI51
aI6
aI485
aI54
aI0
aI9
aI6
aI4
aI19
aI0
aI11
aI3
aI5
aI63
aI419
aI12
aI10
aI28
aI6
aI78
aI7
aI3
aI19
aI41
aI0
aI0
aI0
aI0
aI0
aI0
aI0
aI113
aI2
aI139
aI5
aI7
aI71
aI32
aI6
aI6
aI77
aI0
aI13
aI0
aI33
aI11
aI12
aI17
aI257
aI242
aI196
aI7
aI13
aI0
aI44
aI129
aI11
aI58
aI0
aI15
aI5
aI12
aI62
aI22
aI13
aI68
aI8
aI5
aI1
aI52
aI28
aI48
aI0
aI136
aI2
aI0
aI5
aI9
aI5
aI11
aI0
aI4
aI9
aI1
aI451
aI0
aI6
aI46
aI0
aI0
aI179
aI3
aI5
aI1
aI732
aI7
aI0
aI31
aI18
aI223
aI0
aI1
aI103
aI0
aI62
aI9
aI5
aI259
aI131
aI4
aI0
aI31
aI23
aI4
aI447
aI5
aI12
aI11
aI3
aI717
aI12
aI64
aI22
aI5
aI80
aI0
aI242
aI13
aI40
aI7
aI5
aI19
aI12
aI0
aI8
aI10
aI10
aI11
aI10
aI279
aI0
aI0
aI0
aI29
aI322
aI40
aI3
aI9
aI20
aI0
aI43
aI0
aI0
aI244
aI0
aI85
aI13
aI0
aI0
aI0
aI11
aI22
aI7
aI30
aI5
aI29
aI32
aI82
aI0
aI4
aI5
aI57
aI3
aI11
aI0
aI19
aI6
aI9
aI0
aI1
aI0
aI79
aI19
aI8
aI195
aI4
aI63
aI106
aI15
aI9
aI261
aI26
aI7
aI0
aI7
aI0
aI7
aI9
aI8
aI10
aI2
aI8
aI11
aI24
aI42
aI0
aI0
aI12
aI12
aI19
aI7
aI48
aI10
aI0
aI41
aI0
aI36
aI6
aI1
aI1
aI68
aI0
aI33
aI3
aI0
aI7
aI76
aI0
aI8
aI10
aI1
aI6
aI9
aI9
aI1
aI14
aI0
aI907
aI0
aI15
aI0
aI10
aI10
aI0
aI3
aI6
aI7
aI6
aI21
aI15
aI0
aI8
aI7
aI12
aI2
aI6
aI2
aI7
aI5
aI0
aI0
aI0
aI40
aI36
aI4
aI3
aI0
aI9
aI10
aI37
aI0
aI40
aI1
aI17
aI39
aI5
aI20
aI0
aI5
aI8
aI5
aI269
aI5
aI0
aI15
aI0
aI5
aI6
aI0
aI5
aI3
aI7
aI22
aI0
aI25
aI0
aI60
aI6
aI187
aI6
aI0
aI0
aI10
aI9
aI0
aI0
aI106
aI0
aI99
aI54
aI5
aI3
aI0
aI0
aI10
aI91
aI13
aI48
aI28
aI0
aI3
aI0
aI5
aI100
aI23
aI10
aI9
aI0
aI0
aI24
aI231
aI6
aI0
aI5
aI8
aI5
aI3
aI6
aI12
aI0
aI19
aI2
aI8
aI6
aI10
aI103
aI6
aI13
aI24
aI5
aI67
aI6
aI726
aI0
aI1
aI59
aI24
aI18
aI22
aI8
aI0
aI1
aI10
aI0
aI9
aI0
aI7
aI7
aI26
aI1
aI7
aI7
aI10
aI9
aI381
aI37
aI0
aI0
aI7
aI11
aI87
aI23
aI7
aI28
aI38
aI5
aI7
aI0
aI26
aI15
aI0
aI2
aI8
aI5
aI9
aI4
aI0
aI14
aI107
aI19
aI6
aI14
aI18
aI5
aI38
aI5
aI8
aI0
aI26
aI22
aI27
aI0
aI0
aI58
aI0
aI9
aI0
aI28
aI12
aI5
aI0
aI5
aI112
aI114
aI20
aI21
aI10
aI7
aI0
aI57
aI14
aI22
aI87
aI21
aI146
aI40
aI0
aI308
aI116
aI14
aI176
aI144
aI71
aI3
aI21
aI3
aI13
aI0
aI6
aI47
aI0
aI0
aI0
aI11
aI7
aI12
aI24
aI86
aI0
aI6
aI7
aI9
aI119
aI0
aI2
aI0
aI151
aI0
aI10
aI0
aI79
aI0
aI10
aI77
aI15
aI2
aI6
aI6
aI5
aI21
aI1
aI5
aI31
aI1
aI6
aI8
aI88
aI10
aI412
aI92
aI1
aI20
aI10
aI12
aI0
aI0
aI0
aI7
aI1111
aI0
aI127
aI0
aI19
aI21
aI0
aI3
aI55
aI75
aI0
aI3
aI0
aI9
aI10
aI9
aI13
aI1
aI10
aI0
aI0
aI454
aI2
aI201
aI270
aI5
aI0
aI9
aI12
aI1
aI11
aI124
aI73
aI3
aI24
aI0
aI2
aI51
aI36
aI0
aI76
aI0
aI0
aI0
aI151
aI5
aI28
aI3
aI18
aI62
aI19
aI1
aI3
aI8
aI0
aI2
aI2
aI0
aI123
aI1
aI1
aI184
aI0
aI13
aI2
aI8
aI0
aI8
aI0
aI5
aI0
aI0
aI3
aI5
aI7
aI0
aI4
aI0
aI34
aI13
aI0
aI6
aI0
aI4
aI24
aI24
aI5
aI1
aI25
aI0
aI0
aI0
aI0
aI7
aI6
aI18
aI43
aI33
aI31
aI0
aI0
aI10
aI8
aI5
aI10
aI41
aI5
aI25
aI22
aI62
aI32
aI9
aI0
aI13
aI0
aI0
aI24
aI50
aI5
aI0
aI26
aI6
aI115
aI15
aI0
aI51
aI7
aI2
aI181
aI31
aI6
aI0
aI27
aI16
aI6
aI365
aI5
aI7
aI44
aI14
aI8
aI0
aI9
aI16
aI31
aI0
aI139
aI267
aI0
aI152
aI5
aI137
aI0
aI2
aI0
aI23
aI59
aI211
aI1001
aI100
aI6
aI0
aI28
aI0
aI114
aI8
aI3
aI0
aI5
aI34
aI21
aI5
aI0
aI2
aI38
aI0
aI133
aI0
aI8
aI9
aI0
aI2
aI117
aI5
aI5
aI401
aI123
aI6
aI0
aI12
aI75
aI0
aI5113
aI0
aI14
aI0
aI6
aI12
aI0
aI5
aI5
aI1
aI5
aI68
aI5
aI0
aI23
aI10
aI7
aI5
aI7
aI17
aI7
aI0
aI26
aI216
aI9
aI0
aI16
aI41
aI0
aI0
aI12
aI5
aI396
aI0
aI8
aI5
aI2
aI14
aI16
aI6
aI12
aI167
aI5
aI3
aI8
aI10
aI432
aI7
aI19
aI7
aI8
aI7
aI1468
aI0
aI91
aI0
aI51
aI411
aI5
aI493
aI32
aI27
aI109
aI0
aI0
aI523
aI6
aI0
aI0
aI8
aI12
aI0
aI127
aI0
aI14
aI0
aI137
aI0
aI6
aI0
aI9
aI26
aI0
aI2
aI0
aI0
aI25
aI93
aI0
aI27
aI39
aI0
aI20
aI91
aI477
aI71
aI0
aI124
aI55
aI43
aI5
aI6
aI12
aI3
aI139
aI13
aI7
aI12
aI9
aI9
aI5
aI14
aI3
aI126
aI7
aI7
aI5
aI0
aI3
aI5
aI10
aI5
aI5
aI75
aI6
aI6
aI8
aI85
aI0
aI6
aI21
aI3
aI0
aI105
aI13
aI5
aI10
aI0
aI1
aI346
aI0
aI1
aI0
aI50
aI5
aI0
aI0
aI0
aI106
aI2
aI1
aI1237
aI0
aI29
aI0
aI38
aI11
aI41
aI7
aI88
aI6
aI99
aI1
aI27
aI115
aI31
aI5
aI0
aI62
aI0
aI0
aI0
aI3
aI0
aI5
aI0
aI6
aI0
aI177
aI9
aI0
aI83
aI5338
aI9
aI9
aI7
aI40
aI0
aI8
aI11
aI2
aI4
aI0
aI6
aI0
aI1
aI43
aI10
aI71
aI5
aI0
aI0
aI62
aI7
aI0
aI0
aI0
aI179
aI0
aI5
aI7
aI6
aI2
aI2
aI1409
aI1
aI1
aI11
aI40
aI0
aI0
aI10
aI56
aI12
aI8
aI67
aI14
aI0
aI15
aI6
aI0
aI1
aI9
aI0
aI0
aI14
aI199
aI9
aI6
aI4
aI14
aI6
aI7
aI24
aI0
aI50
aI75
aI0
aI12
aI0
aI42
aI26
aI4
aI3
aI35
aI0
aI2
aI0
aI0
aI10
aI13
aI33
aI5
aI11
aI0
aI7
aI14
aI15
aI5
aI103
aI1
aI0
aI17
aI3
aI23
aI1
aI92
aI0
aI0
aI8
aI23
aI6
aI0
aI103
aI5
aI55
aI2
aI0
aI0
aI0
aI152
aI0
aI5
aI6
aI173
aI25
aI9
aI26
aI8
aI0
aI30
aI24
aI20
aI143
aI6
aI2
aI10
aI5
aI2
aI45
aI0
aI7
aI5
aI4
aI6
aI18
aI0
aI1
aI7
aI3
aI23
aI7
aI5
aI176
aI12
aI5
aI0
aI8
aI0
aI36
aI23
aI9
aI0
aI3
aI0
aI79
aI95
aI8
aI13
aI365
aI4
aI2
aI0
aI13
aI5
aI8
aI5
aI0
aI165
aI34
aI0
aI0
aI196
aI5
aI1
aI240
aI0
aI12
aI14
aI0
aI12
aI0
aI11
aI10
aI23
aI6
aI2
aI101
aI0
aI0
aI0
aI12
aI14
aI2
aI8
aI30
aI0
aI2
aI58
aI11
aI17
aI1
aI2
aI2
aI5
aI36
aI17
aI0
aI0
aI0
aI2
aI45
aI3
aI4
aI115
aI13
aI16
aI1
aI5
aI7
aI14
aI0
aI14
aI7
aI0
aI86
aI170
aI35
aI115
aI272
aI19
aI1
aI31
aI22
aI17
aI27
aI6
aI0
aI0
aI5
aI4
aI193
aI7
aI289
aI7
aI39
aI11
aI0
aI0
aI2
aI519
aI0
aI0
aI5
aI8
aI0
aI11
aI5
aI23
aI99
aI26
aI127
aI6
aI8
aI11
aI8
aI5
aI14
aI7
aI1
aI0
aI14
aI96
aI1
aI125
aI76
aI24
aI3
aI8
aI6
aI42
aI0
aI4
aI5
aI12
aI52
aI5
aI156
aI6
aI9
aI1
aI35
aI8
aI17
aI79
aI50
aI11
aI0
aI5
aI12
aI15
aI7
aI18
aI7
aI6
aI36
aI41
aI10
aI2
aI27
aI11
aI12
aI13
aI210
aI26
aI17
aI10
aI0
aI206
aI57
aI13
aI60
aI4
aI0
aI41
aI6
aI45
aI3
aI13
aI3
aI15
aI14
aI22
aI0
aI9
aI9
aI20
aI90
aI5
aI191
aI122
aI218
aI0
aI4
aI7
aI9
aI36
aI12
aI5
aI9
aI2
aI6
aI10
aI106
aI4
aI0
aI7
aI0
aI10
aI0
aI0
aI83
aI12
aI14
aI0
aI8
aI8
aI1
aI5
aI5
aI2
aI4
aI10
aI133
aI119
aI12
aI11
aI7
aI0
aI0
aI0
aI8
aI16
aI85
aI6
aI0
aI0
aI204
aI5
aI0
aI7
aI61
aI0
aI158
aI20
aI15
aI5
aI28
aI44
aI5
aI2
aI10
aI0
aI14
aI5
aI9
aI54
aI1
aI5
aI0
aI6
aI84
aI253
aI6
aI13
aI4
aI0
aI20
aI0
aI21
aI0
aI4
aI7
aI8
aI11
aI0
aI11
aI41
aI9
aI1
aI51
aI7
aI0
aI8
aI10
aI0
aI0
aI26
aI258
aI0
aI67
aI0
aI0
aI121
aI0
aI6
aI10
aI54
aI0
aI42
aI161
aI5
aI12
aI23
aI7
aI5
aI12
aI5
aI0
aI2
aI0
aI0
aI29
aI0
aI15
aI20
aI216
aI0
aI0
aI0
aI6
aI0
aI1
aI8
aI71
aI16
aI7
aI26
aI10
aI29
aI0
aI63
aI0
aI7
aI18
aI38
aI7
aI0
aI261
aI182
aI0
aI70
aI49
aI7
aI5
aI17
aI60
aI9
aI217
aI116
aI48
aI0
aI13
aI13
aI38
aI0
aI65
aI8
aI18
aI0
aI6
aI85
aI5
aI11
aI4
aI0
aI487
aI19
aI25
aI37
aI4
aI3
aI3
aI0
aI31
aI16
aI1
aI6
aI0
aI42
aI4
aI0
aI0
aI7
aI0
aI102
aI9
aI9
aI1
aI0
aI0
aI6
aI7
aI10
aI10
aI23
aI9
aI12
aI0
aI5
aI0
aI7
aI40
aI15
aI5
aI0
aI0
aI0
aI7
aI0
aI30
aI10
aI7
aI5
aI55
aI0
aI417
aI12
aI4
aI5
aI5
aI10
aI0
aI386
aI29
aI2
aI10
aI77
aI674
aI1
aI27
aI333
aI5
aI6
aI404
aI90
aI0
aI1
aI3
aI74
aI7
aI26
aI7
aI14
aI5
aI0
aI5
aI42
aI14
aI21
aI4
aI0
aI32
aI15
aI15
aI9
aI0
aI10
aI14
aI0
aI10
aI0
aI29
aI7
aI7
aI16
aI6
aI314
aI42
aI117
aI0
aI12
aI24
aI22
aI0
aI0
aI26
aI0
aI0
aI11
aI0
aI27
aI20
aI3
aI2
aI7
aI17
aI21
aI0
aI24
aI6
aI92
aI49
aI13
aI0
aI18
aI86
aI6
aI5
aI5
aI0
aI0
aI0
aI2
aI0
aI0
aI5
aI9
aI5
aI16
aI0
aI0
aI7
aI48
aI3
aI20
aI0
aI2
aI7
aI0
aI0
aI14
aI16
aI8
aI5
aI0
aI1
aI46
aI0
aI6
aI11
aI0
aI5
aI13
aI20
aI2
aI76
aI24
aI4
aI12
aI10
aI0
aI12
aI0
aI2
aI192
aI9
aI12
aI0
aI5
aI7
aI13
aI8
aI20
aI0
aI6
aI5
aI0
aI23
aI22
aI2
aI32
aI16
aI0
aI115
aI0
aI1
aI8
aI2
aI18
aI6
aI0
aI5
aI9
aI0
aI229
aI48
aI10
aI18
aI11
aI5
aI0
aI0
aI6
aI6
aI1
aI0
aI0
aI19
aI7
aI27
aI8
aI5
aI0
aI1
aI37
aI0
aI9
aI16
aI14
aI141
aI1112
aI9
aI86
aI5
aI0
aI0
aI0
aI409
aI59
aI14
aI0
aI30
aI17
aI73
aI10
aI3
aI13
aI0
aI0
aI88
aI5
aI104
aI9
aI1
aI71
aI6
aI15
aI11
aI0
aI149
aI7
aI0
aI5
aI37
aI7
aI9
aI7
aI45
aI0
aI141
aI5
aI12
aI14
aI8
aI0
aI0
aI5
aI0
aI53
aI18
aI14
aI0
aI153
aI7
aI0
aI61
aI331
aI206
aI0
aI2
aI829
aI0
aI6
aI0
aI0
aI13
aI4
aI23
aI0
aI110
aI5
aI5
aI0
aI45
aI9
aI302
aI0
aI0
aI12
aI0
aI847
aI16
aI0
aI4
aI20
aI5
aI472
aI0
aI394
aI2
aI3
aI0
aI0
aI69
aI0
aI6
aI0
aI7
aI5
aI0
aI6
aI18
aI84
aI0
aI12
aI0
aI0
aI69
aI7
aI10
aI14
aI9
aI17
aI30
aI32
aI1
aI30
aI3
aI0
aI44
aI5
aI50
aI4
aI8
aI2
aI0
aI41
aI1
aI46
aI5
aI0
aI13
aI0
aI8
aI218
aI14
aI57
aI0
aI127
aI18
aI15
aI1253
aI119
aI13
aI7
aI0
aI9
aI6
aI12
aI98
aI11
aI147
aI51
aI14
aI5
aI15
aI0
aI6
aI4
aI0
aI24
aI0
aI0
aI7
aI116
aI86
aI48
aI6
aI19
aI3
aI14
aI11
aI5
aI74
aI33
aI5
aI55
aI7
aI41
aI20
aI0
aI71
aI66
aI5
aI7
aI0
aI10
aI27
aI0
aI20
aI733
aI137
aI20
aI5
aI527
aI17
aI11
aI0
aI6
aI26
aI10
aI10
aI0
aI5
aI0
aI17
aI38
aI13
aI266
aI0
aI20
aI0
aI8
aI6
aI7
aI8
aI0
aI1
aI3
aI18
aI7
aI0
aI2
aI80
aI0
aI10
aI9
aI3
aI183
aI243
aI57
aI153
aI11
aI17
aI49
aI1
aI6
aI66
aI10
aI171
aI0
aI142
aI36
aI1
aI0
aI274
aI0
aI0
aI11
aI95
aI0
aI7
aI8
aI0
aI5
aI39
aI0
aI0
aI25
aI6
aI7
aI46
aI13
aI0
aI0
aI5
aI1
aI1
aI9
aI0
aI25
aI4
aI76
aI35
aI6
aI0
aI18
aI0
aI81
aI13
aI7
aI0
aI5
aI1
aI70
aI0
aI16
aI20
aI161
aI12
aI5
aI2
aI0
aI22
aI0
aI33
aI0
aI7
aI8
aI2
aI31
aI63
aI8
aI1
aI40
aI6
aI1
aI58
aI10
aI50
aI42
aI7
aI19
aI2
aI0
aI9
aI17
aI5
aI5
aI1
aI0
aI0
aI465
aI73
aI5
aI0
aI1
aI77
aI0
aI4
aI28
aI0
aI38
aI0
aI17
aI2
aI13
aI138
aI47
aI92
aI5
aI4
aI0
aI7
aI84
aI88
aI12
aI8
aI56
aI1
aI188
aI68
aI0
aI12
aI7
aI1
aI230
aI58
aI0
aI5
aI6
aI3
aI9
aI7
aI2288
aI3
aI5
aI91
aI17
aI1
aI0
aI10
aI11
aI7
aI45
aI0
aI4
aI21
aI1
aI18
aI73
aI0
aI5
aI5
aI57
aI7
aI8
aI48
aI0
aI11
aI0
aI8
aI5
aI1
aI0
aI14
aI15
aI0
aI33
aI7
aI4
aI134
aI69
aI627
aI0
aI7
aI5
aI111
aI24
aI0
aI7
aI49
aI6
aI10
aI0
aI0
aI58
aI0
aI0
aI8
aI32
aI7
aI26
aI0
aI22
aI2
aI27
aI14
aI42
aI15
aI6
aI5
aI115
aI9
aI14
aI21
aI6
aI13
aI13
aI5
aI2
aI6
aI0
aI66
aI77
aI6
aI6
aI46
aI358
aI24
aI19
aI2
aI0
aI440
aI0
aI0
aI5
aI0
aI0
aI4
aI106
aI6
aI27
aI14
aI21
aI0
aI0
aI0
aI27
aI9
aI0
aI19
aI61
aI41
aI0
aI169
aI3
aI0
aI9
aI0
aI1671
aI0
aI5
aI26
aI3
aI2
aI19
aI24
aI0
aI16
aI340
aI0
aI4
aI0
aI1
aI6
aI0
aI78
aI0
aI49
aI3
aI129
aI34
aI6
aI10
aI0
aI9
aI45
aI7
aI9
aI9
aI2
aI4
aI0
aI86
aI276
aI27
aI9
aI13
aI57
aI8
aI0
aI40
aI271
aI9
aI42
aI0
aI118
aI7
aI3
aI0
aI33
aI89
aI20
aI10
aI0
aI5
aI0
aI7
aI0
aI0
aI9
aI11
aI15
aI6
aI192
aI24
aI5
aI5
aI18
aI0
aI5
aI5
aI0
aI8
aI16
aI18
aI30
aI13
aI15
aI5
aI9
aI5
aI9
aI0
aI0
aI6
aI9
aI304
aI38
aI5
aI10
aI91
aI6
aI0
aI13
aI200
aI43
aI18
aI7
aI42
aI5
aI2
aI0
aI0
aI5
aI10
aI0
aI8
aI1
aI31
aI15
aI39
aI1
aI12
aI9
aI12
aI17
aI7
aI11
aI5
aI9
aI210
aI0
aI7
aI1
aI0
aI5
aI22
aI0
aI14
aI20
aI5
aI5
aI0
aI5
aI19
aI31
aI0
aI0
aI44
aI44
aI188
aI38
aI0
aI256
aI7
aI10
aI7
aI0
aI144
aI9
aI0
aI20
aI2
aI352
aI8
aI32
aI17
aI17
aI0
aI18
aI12
aI0
aI6
aI0
aI5
aI0
aI7
aI9
aI4
aI8
aI17
aI7
aI13
aI13
aI14
aI7
aI32
aI0
aI136
aI0
aI44
aI33
aI0
aI6
aI8
aI18
aI5
aI2
aI81
aI32
aI12
aI0
aI8
aI0
aI12
aI1
aI0
aI40
aI0
aI51
aI2
aI0
aI0
aI12
aI9
aI3
aI2
aI14
aI443
aI9
aI0
aI49
aI49
aI13
aI9
aI13
aI0
aI1
aI89
aI0
aI3
aI9
aI289
aI0
aI59
aI69
aI0
aI4
aI9
aI0
aI8
aI12
aI0
aI7
aI0
aI8
aI6
aI5
aI21
aI5
aI7
aI1
aI0
aI0
aI30
aI0
aI7
aI7
aI0
aI0
aI0
aI0
aI0
aI6
aI6
aI38
aI36
aI0
aI10
aI16
aI6
aI4
aI12
aI15
aI13
aI2
aI12
aI28
aI7
aI14
aI0
aI2
aI46
aI33
aI7
aI11
aI0
aI8
aI1
aI7
aI0
aI21
aI19
aI12
aI42
aI31
aI0
aI4
aI0
aI0
aI2
aI3
aI5
aI0
aI28
aI22
aI12
aI0
aI14
aI0
aI0
aI0
aI0
aI11
aI59
aI0
aI8
aI6
aI0
aI21
aI5
aI0
aI93
aI117
aI5
aI0
aI12
aI5
aI0
aI17
aI0
aI1
aI63
aI16
aI14
aI71
aI49
aI0
aI0
aI42
aI15
aI11
aI0
aI5
aI25
aI8
aI5
aI0
aI15
aI0
aI0
aI0
aI40
aI22
aI9
aI10
aI24
aI27
aI61
aI9
aI6
aI0
aI8
aI406
aI5
aI2
aI30
aI8
aI306
aI87
aI0
aI18
aI21
aI3
aI3
aI0
aI6
aI26
aI0
aI180
aI5
aI0
aI20
aI34
aI8
aI139
aI22
aI20
aI0
aI7
aI5
aI0
aI23
aI36
aI139
aI298
aI7
aI67
aI0
aI24
aI5
aI8
aI1
aI2
aI0
aI12
aI5
aI0
aI2
aI0
aI0
aI1
aI35
aI10
aI1
aI0
aI9
aI27
aI246
aI31
aI134
aI0
aI0
aI29
aI59
aI12
aI1
aI0
aI16
aI5
aI0
aI0
aI159
aI0
aI0
aI11
aI347
aI0
aI5
aI5
aI2
aI24
aI0
aI1
aI11
aI71
aI12
aI20
aI2
aI65
aI20
aI1
aI0
aI9
aI5
aI0
aI3
aI5
aI11
aI13
aI31
aI7
aI0
aI5
aI0
aI0
aI31
aI872
aI7
aI12
aI0
aI0
aI2
aI2
aI11
aI0
aI9
aI11
aI21
aI32
aI0
aI45
aI88
aI5
aI56
aI42
aI14
aI14
aI21
aI157
aI1041
aI52
aI1
aI6
aI0
aI0
aI5
aI7
aI44
aI13
aI0
aI11
aI30
aI6
aI484
aI0
aI15
aI2
aI5
aI0
aI33
aI633
aI0
aI1
aI52
aI22
aI19
aI6
aI167
aI7
aI8
aI0
aI39
aI0
aI7
aI29
aI8
aI0
aI5
aI9
aI0
aI3
aI13
aI22
aI11
aI389
aI0
aI0
aI169
aI16
aI2
aI0
aI0
aI9
aI22
aI19
aI21
aI3
aI136
aI0
aI19
aI0
aI0
aI8
aI5
aI1
aI149
aI0
aI61
aI26
aI5
aI0
aI0
aI7
aI0
aI0
aI90
aI6
aI65
aI0
aI225
aI10
aI392
aI4
aI8
aI14
aI9
aI0
aI1
aI3
aI4
aI17
aI1
aI1
aI9
aI23
aI10
aI68
aI140
aI217
aI0
aI7
aI0
aI5
aI0
aI0
aI6
aI11
aI39
aI18
aI11
aI70
aI0
aI0
aI12
aI143
aI5
aI0
aI10
aI8
aI50
aI57
aI114
aI440
aI0
aI14
aI6
aI0
aI33
aI3
aI0
aI40
aI8
aI21
aI49
aI8
aI0
aI1
aI8
aI37
aI46
aI1
aI0
aI0
aI2
aI0
aI5
aI181
aI8
aI160
aI0
aI1
aI10
aI6
aI16
aI7
aI11
aI1
aI56
aI32
aI591
aI6
aI15
aI5
aI6
aI0
aI7
aI1
aI0
aI8
aI9
aI0
aI9
aI58
aI6
aI10
aI106
aI14
aI0
aI52
aI18
aI410
aI0
aI11
aI3
aI6
aI14
aI13
aI218
aI89
aI1
aI19
aI103
aI9
aI0
aI19
aI34
aI1
aI0
aI34
aI0
aI10
aI0
aI57
aI0
aI4
aI73
aI1
aI0
aI0
aI18
aI9
aI262
aI11
aI5
aI17
aI0
aI2
aI1
aI142
aI5
aI20
aI0
aI23
aI17
aI117
aI4
aI5
aI8
aI9
aI14
aI81
aI1
aI24
aI0
aI44
aI58
aI0
aI37
aI93
aI261
aI11
aI25
aI0
aI2
aI0
aI5
aI31
aI6
aI26
aI0
aI53
aI0
aI12
aI11
aI19
aI5
aI6
aI7
aI1
aI0
aI60
aI12
aI0
aI450
aI11
aI0
aI1
aI5
aI155
aI0
aI23
aI10
aI0
aI459
aI0
aI8
aI20
aI409
aI92
aI0
aI84
aI0
aI3
aI87
aI145
aI0
aI192
aI0
aI53
aI21
aI159
aI0
aI21
aI1
aI1
aI23
aI23
aI1
aI12
aI132
aI9
aI27
aI18
aI1
aI32
aI0
aI9
aI496
aI170
aI13
aI3
aI2
aI17
aI5
aI227
aI318
aI22
aI13
aI6
aI14
aI527
aI259
aI0
aI0
aI440
aI2
aI25
aI65
aI10
aI5
aI5
aI8
aI14
aI21
aI58
aI8
aI0
aI19
aI16
aI22
aI5
aI5
aI0
aI3
aI0
aI7
aI6
aI41
aI487
aI0
aI135
aI0
aI9
aI17
aI5237
aI7
aI5
aI23
aI11
aI20
aI6
aI0
aI4
aI24
aI16
aI0
aI2
aI44
aI0
aI45
aI0
aI66
aI7
aI9
aI5
aI8
aI7
aI131
aI0
aI5
aI0
aI5
aI9
aI449
aI0
aI27
aI6
aI32
aI35
aI31
aI0
aI0
aI5
aI0
aI0
aI1
aI0
aI0
aI0
aI10
aI4
aI0
aI7
aI6
aI0
aI20
aI36
aI0
aI0
aI0
aI0
aI0
aI13
aI0
aI6
aI12
aI6
aI11
aI1
aI10
aI50
aI19
aI9
aI5
aI6
aI0
aI0
aI86
aI4
aI6
aI11
aI49
aI14
aI14
aI7
aI0
aI5
aI3
aI0
aI9
aI7
aI5
aI190
aI9
aI1
aI19
aI112
aI6
aI11
aI89
aI9
aI7
aI7
aI0
aI0
aI0
aI0
aI546
aI49
aI0
aI5
aI8
aI8
aI1
aI2
aI3
aI28
aI623
aI15
aI15
aI6
aI383
aI43
aI12
aI16
aI16
aI12
aI64
aI7
aI20
aI13
aI1
aI42
aI16
aI0
aI0
aI8
aI5
aI262
aI0
aI20
aI6
aI6
aI0
aI17
aI8
aI71
aI1
aI0
aI25
aI0
aI33
aI8
aI7
aI11
aI37
aI0
aI12
aI0
aI83
aI12
aI68
aI2
aI0
aI36
aI40
aI5
aI0
aI0
aI0
aI45
aI4
aI11
aI10
aI0
aI5
aI5
aI34
aI30
aI22
aI9
aI11
aI23
aI24
aI13
aI5
aI11
aI0
aI3
aI68
aI2
aI0
aI5
aI198
aI8
aI29
aI5
aI2
aI0
aI13
aI53
aI0
aI32
aI0
aI16
aI95
aI10
aI9
aI0
aI44
aI0
aI3
aI8
aI0
aI2
aI9
aI59
aI0
aI5
aI201
aI0
aI18
aI6
aI9
aI13
aI1
aI0
aI6
aI5
aI26
aI26
aI0
aI5
aI302
aI0
aI29
aI1
aI1
aI369
aI0
aI15
aI69
aI9
aI0
aI0
aI11
aI15
aI95
aI5
aI38
aI0
aI25
aI30
aI23
aI8
aI6
aI5
aI58
aI16
aI0
aI1
aI3
aI9
aI8
aI0
aI1
aI10
aI69
aI4
aI609
aI2
aI34
aI0
aI43
aI0
aI5
aI17
aI0
aI32
aI0
aI0
aI36
aI0
aI0
aI3
aI0
aI7
aI0
aI5
aI65
aI13
aI17
aI0
aI5
aI3
aI0
aI0
aI0
aI0
aI6
aI2
aI280
aI0
aI0
aI5
aI7
aI5
aI1
aI6
aI12
aI5
aI59
aI125
aI13
aI4
aI21
aI2
aI0
aI4
aI5
aI9
aI7
aI6
aI6
aI292
aI3
aI32
aI0
aI9
aI10
aI0
aI9
aI343
aI99
aI283
aI35
aI6
aI30
aI5
aI5
aI0
aI83
aI5
aI0
aI103
aI37
aI0
aI153
aI12
aI0
aI0
aI15
aI0
aI10
aI0
aI24
aI35
aI347
aI0
aI5
aI0
aI248
aI141
aI107
aI11
aI6
aI0
aI0
aI0
aI0
aI16
aI9
aI9
aI6
aI0
aI0
aI0
aI12
aI8
aI5
aI23
aI0
aI0
aI12
aI10
aI1
aI16
aI0
aI10
aI0
aI15
aI31
aI6
aI6
aI0
aI49
aI0
aI5
aI22
aI0
aI36
aI68
aI1
aI48
aI24
aI17
aI0
aI236
aI0
aI687
aI7
aI35
aI451
aI5
aI52
aI6
aI14
aI1
aI11
aI0
aI0
aI8
aI5
aI149
aI6
aI15
aI12
aI0
aI3
aI0
aI3
aI5
aI42
aI8
aI21
aI0
aI5
aI35
aI38
aI96
aI0
aI0
aI12
aI34
aI0
aI7
aI0
aI15
aI143
aI42
aI17
aI0
aI6
aI5
aI44
aI30
aI65
aI8
aI16
aI0
aI0
aI0
aI7
aI81
aI0
aI13
aI0
aI4
aI5
aI16
aI9
aI0
aI81
aI6
aI0
aI12
aI0
aI57
aI97
aI47
aI37
aI33
aI0
aI0
aI20
aI145
aI14
aI1
aI6
aI0
aI21
aI5
aI13
aI6
aI15
aI63
aI5
aI0
aI5
aI0
aI7
aI0
aI11
aI0
aI22
aI0
aI0
aI63
aI30
aI3
aI0
aI8
aI5
aI39
aI9
aI0
aI0
aI9
aI42
aI0
aI24
aI7
aI9
aI8
aI0
aI6
aI0
aI20
aI0
aI23
aI351
aI3
aI263
aI19
aI1
aI70
aI6
aI60
aI234
aI1
aI1
aI38
aI13
aI0
aI0
aI20
aI56
aI158
aI12
aI0
aI10
aI0
aI1
aI19
aI0
aI10
aI0
aI2
aI2
aI1
aI5
aI4
aI4
aI0
aI2
aI144
aI8
aI0
aI193
aI0
aI639
aI61
aI85
aI837
aI6
aI8
aI4
aI9
aI0
aI0
aI0
aI5
aI7
aI72
aI0
aI23
aI5
aI14
aI2
aI56
aI14
aI0
aI15
aI5
aI8
aI6
aI264
aI6
aI633
aI124
aI7
aI0
aI6
aI0
aI175
aI19
aI5
aI5
aI3
aI0
aI7
aI8
aI8
aI23
aI79
aI0
aI10
aI6
aI136
aI11
aI16
aI5
aI0
aI9
aI0
aI54
aI0
aI25
aI38
aI12
aI129
aI1
aI8
aI0
aI2
aI5
aI20
aI10
aI0
aI47
aI2
aI6
aI0
aI3
aI3
aI7
aI15
aI0
aI0
aI0
aI5
aI5
aI13
aI28
aI16
aI123
aI0
aI2
aI5
aI6
aI5
aI7
aI0
aI0
aI107
aI6
aI8
aI1
aI5
aI0
aI33
aI20
aI1
aI52
aI0
aI0
aI57
aI0
aI131
aI0
aI8
aI5
aI0
aI1
aI0
aI5
aI26
aI6
aI1
aI74
aI31
aI0
aI0
aI406
aI20
aI0
aI0
aI7
aI0
aI10
aI202
aI0
aI1
aI20
aI11
aI8
aI2
aI5
aI3
aI7
aI45
aI5
aI5
aI0
aI4
aI0
aI0
aI3
aI1
aI0
aI8
aI9
aI1
aI0
aI61
aI47
aI16
aI31
aI0
aI306
aI2
aI21
aI65
aI8
aI6
aI7
aI14
aI1
aI18
aI8
aI27
aI5
aI117
aI9
aI5
aI100
aI11
aI0
aI146
aI1
aI6
aI12
aI8
aI81
aI0
aI0
aI20
aI144
aI1
aI0
aI0
aI0
aI4
aI0
aI7
aI7
aI10
aI43
aI0
aI25
aI8
aI6
aI1
aI11046
aI6
aI7
aI0
aI7
aI1
aI6
aI14
aI99
aI0
aI0
aI90
aI14
aI0
aI7
aI0
aI0
aI6
aI9
aI9
aI66
aI103
aI159
aI97
aI42
aI0
aI0
aI70
aI52
aI10
aI0
aI1
aI56
aI0
aI24
aI216
aI5
aI12
aI0
aI0
aI0
aI1
aI0
aI9
aI42
aI5
aI6
aI6
aI41
aI0
aI9
aI46
aI31
aI8
aI7
aI7
aI26
aI0
aI4
aI6
aI6
aI60
aI1328
aI2
aI14
aI36
aI17
aI0
aI10
aI8
aI38
aI40
aI0
aI6
aI0
aI0
aI0
aI0
aI5
aI0
aI17
aI5
aI0
aI2
aI0
aI35
aI0
aI150
aI41
aI1344
aI0
aI1
aI4
aI0
aI1
aI6
aI29
aI0
aI3
aI0
aI5
aI7
aI6
aI123
aI3
aI0
aI17
aI7
aI7
aI18
aI343
aI0
aI39
aI15
aI16
aI33
aI11
aI5
aI5
aI192
aI137
aI6
aI54
aI1
aI17
aI26
aI5
aI0
aI0
aI120
aI5
aI103
aI0
aI11
aI11
aI0
aI12
aI10
aI10
aI33
aI12
aI0
aI5
aI358
aI12
aI13
aI0
aI7
aI20
aI15
aI0
aI87
aI46
aI9
aI5
aI7
aI13
aI5
aI4
aI246
aI6
aI0
aI17
aI28
aI5
aI12
aI9
aI2
aI7
aI9
aI0
aI13
aI0
aI46
aI43
aI1
aI7
aI5
aI1
aI18
aI2
aI11
aI1
aI186
aI3
aI35
aI0
aI218
aI9
aI16
aI5
aI0
aI2
aI7
aI22
aI9
aI7
aI172
aI0
aI4
aI8
aI10
aI5
aI0
aI0
aI57
aI24
aI40
aI42
aI0
aI10
aI0
aI23
aI20
aI5
aI0
aI39
aI5
aI15
aI15
aI1
aI133
aI232
aI40
aI5
aI0
aI6
aI150
aI0
aI0
aI8
aI0
aI7
aI9
aI5
aI2
aI3
aI79
aI2
aI15
aI16
aI27
aI23
aI0
aI1
aI0
aI13
aI0
aI29
aI0
aI19
aI0
aI2
aI0
aI11
aI9
aI23
aI5
aI0
aI0
aI56
aI7
aI680
aI84
aI836
aI2
aI16
aI12
aI17
aI0
aI9
aI14
aI24
aI0
aI5
aI8
aI5
aI3167
aI18
aI13
aI0
aI0
aI8
aI14
aI11
aI0
aI6
aI789
aI1
aI4
aI8
aI9
aI18
aI0
aI224
aI6
aI14
aI9
aI12
aI309
aI10
aI5
aI15
aI7
aI8
aI6
aI8
aI0
aI1
aI130
aI79
aI7
aI6
aI0
aI0
aI246
aI10
aI0
aI17
aI13
aI24
aI41
aI0
aI138
aI110
aI495
aI107
aI5
aI10
aI32
aI32
aI0
aI0
aI5
aI2
aI10
aI3
aI1
aI0
aI0
aI20
aI4
aI0
aI0
aI6
aI2
aI118
aI10
aI9
aI0
aI88
aI5
aI77
aI0
aI9
aI16
aI0
aI86
aI12
aI50
aI33
aI5
aI43
aI25
aI148
aI1
aI2
aI0
aI0
aI0
aI177
aI0
aI36
aI3
aI2
aI0
aI12
aI3
aI9
aI20
aI42
aI0
aI0
aI9
aI186
aI0
aI6
aI11
aI170
aI50
aI34
aI9
aI426
aI16
aI22
aI6
aI8
aI91
aI72
aI5
aI0
aI6
aI631
aI6
aI7
aI67
aI4
aI105
aI66
aI2
aI0
aI6
aI12
aI6
aI5
aI8
aI5
asS'spam_instance_count'
p4
I6466
sS'instance_count'
p5
I17512
sS'b_ham'
p6
I1
sS'b_spam'
p7
I1
sS'ham_instance_count'
p8
I11046
sS'spam_frequency_vector'
p9
(lp10
I5
aI136
aI8
aI7
aI3
aI4
aI46
aI493
aI0
aI10
aI5
aI0
aI0
aI1
aI1
aI5
aI7
aI5
aI10
aI27
aI5
aI2
aI0
aI10
aI43
aI56
aI6
aI6
aI14
aI0
aI5
aI1
aI4
aI8
aI19
aI0
aI5
aI5
aI59
aI4
aI5
aI5
aI69
aI21
aI23
aI17
aI6
aI3
aI12
aI6
aI12
aI1
aI216
aI5
aI25
aI1
aI86
aI5
aI95
aI0
aI27
aI0
aI5
aI3
aI0
aI5
aI0
aI5
aI41
aI1
aI0
aI5
aI4
aI3
aI26
aI6
aI7
aI5
aI1
aI0
aI1
aI33
aI7
aI0
aI1
aI96
aI169
aI21
aI0
aI22
aI1
aI0
aI7
aI258
aI0
aI5
aI10
aI7
aI10
aI19
aI4
aI1
aI0
aI0
aI5
aI0
aI0
aI81
aI1
aI5
aI1
aI1
aI7
aI23
aI0
aI10
aI904
aI3
aI1
aI8
aI44
aI0
aI0
aI73
aI35
aI9
aI0
aI0
aI0
aI6
aI6
aI0
aI0
aI45
aI11
aI7
aI1
aI0
aI5
aI8
aI5
aI0
aI6
aI4
aI0
aI6
aI7
aI5
aI5
aI0
aI5
aI2
aI4
aI1
aI5
aI82
aI0
aI0
aI111
aI13
aI18
aI7
aI0
aI7
aI3
aI5
aI4
aI0
aI13
aI34
aI14
aI5
aI1
aI6
aI4
aI17
aI22
aI21
aI4
aI0
aI3
aI28
aI7
aI4
aI18
aI14
aI26
aI8
aI7
aI6
aI3
aI0
aI37
aI0
aI0
aI0
aI0
aI5
aI9
aI2
aI3
aI13
aI112
aI12
aI0
aI0
aI17
aI7
aI5
aI0
aI51
aI0
aI8
aI0
aI8
aI87
aI5
aI505
aI21
aI6
aI0
aI264
aI51
aI1
aI5
aI8
aI5
aI0
aI5
aI12
aI5
aI0
aI5
aI5
aI1
aI6
aI4
aI11
aI27
aI26
aI242
aI2
aI1
aI6
aI0
aI32
aI51
aI5
aI9
aI5
aI8
aI10
aI6
aI1
aI12
aI10
aI17
aI5
aI4
aI0
aI8
aI42
aI0
aI5
aI11
aI0
aI9
aI5
aI0
aI8
aI8
aI1
aI0
aI6
aI0
aI3
aI6
aI6
aI0
aI4
aI4
aI3
aI13
aI11
aI12
aI0
aI43
aI7
aI12
aI11
aI90
aI0
aI9
aI2
aI1
aI82
aI2
aI4
aI6
aI1
aI12
aI7
aI9
aI0
aI12
aI105
aI7
aI11
aI12
aI0
aI6
aI5
aI8
aI9
aI0
aI5
aI0
aI0
aI1
aI57
aI0
aI0
aI5
aI5
aI5
aI7
aI0
aI2
aI5
aI50
aI0
aI0
aI0
aI0
aI1
aI149
aI6
aI4
aI1
aI5
aI0
aI6
aI0
aI6
aI6
aI8
aI43
aI12
aI17
aI69
aI5
aI7
aI5
aI0
aI13
aI10
aI1
aI82
aI38
aI6
aI5
aI327
aI3
aI28
aI21
aI0
aI6
aI26
aI12
aI1
aI6
aI15
aI0
aI7
aI8
aI6
aI5
aI37
aI73
aI2
aI455
aI3
aI0
aI6
aI2
aI0
aI10
aI0
aI12
aI7
aI5
aI7
aI1
aI5
aI5
aI54
aI9
aI2
aI16
aI0
aI1
aI15
aI16
aI33
aI6
aI15
aI0
aI6
aI3
aI2
aI5
aI12
aI2
aI36
aI8
aI31
aI0
aI0
aI16
aI6
aI5
aI80
aI9
aI0
aI1
aI12
aI5
aI0
aI0
aI8
aI9
aI12
aI0
aI21
aI5
aI0
aI2
aI13
aI3
aI163
aI8
aI12
aI2
aI20
aI0
aI14
aI6
aI0
aI8
aI0
aI17
aI73
aI28
aI1
aI0
aI1
aI6
aI13
aI0
aI0
aI7
aI0
aI11
aI80
aI8
aI16
aI5
aI0
aI93
aI46
aI0
aI0
aI9
aI0
aI7
aI0
aI48
aI10
aI8
aI8
aI8
aI15
aI138
aI6
aI8
aI11
aI2
aI27
aI0
aI96
aI3
aI24
aI0
aI699
aI0
aI9
aI11
aI0
aI6
aI27
aI6
aI4
aI10
aI4
aI0
aI0
aI81
aI6
aI6
aI25
aI7
aI19
aI4
aI1
aI0
aI10
aI3
aI5
aI0
aI6
aI13
aI8
aI1
aI12
aI6
aI10
aI15
aI5
aI125
aI43
aI11
aI16
aI5
aI34
aI6
aI6
aI5
aI11
aI3
aI7
aI9
aI5
aI3
aI0
aI76
aI9
aI35
aI0
aI65
aI9
aI0
aI2
aI118
aI3
aI19
aI2
aI3
aI27
aI0
aI7
aI50
aI25
aI2
aI6
aI6
aI6
aI3
aI25
aI14
aI4
aI3
aI23
aI13
aI104
aI30
aI1
aI0
aI1
aI6
aI94
aI5
aI7
aI16
aI20
aI0
aI12
aI94
aI9
aI5
aI3
aI10
aI0
aI4
aI7
aI3
aI11
aI6
aI5
aI5
aI21
aI8
aI77
aI5
aI8
aI1
aI6
aI0
aI5
aI6
aI0
aI0
aI7
aI0
aI8
aI1
aI1
aI4
aI147
aI1
aI5
aI8
aI33
aI130
aI78
aI13
aI27
aI2
aI12
aI5
aI6
aI12
aI0
aI3
aI9
aI8
aI0
aI19
aI85
aI5
aI5
aI0
aI0
aI5
aI2
aI1
aI15
aI5
aI188
aI8
aI1
aI1
aI6
aI5
aI5
aI23
aI3
aI0
aI8
aI1
aI727
aI0
aI10
aI6
aI1
aI157
aI7
aI11
aI1
aI4
aI6
aI6
aI1
aI7
aI4
aI17
aI5
aI9
aI17
aI5
aI17
aI4
aI189
aI8
aI6
aI0
aI6
aI7
aI15
aI7
aI0
aI10
aI64
aI8
aI0
aI0
aI18
aI30
aI0
aI0
aI0
aI8
aI7
aI0
aI0
aI0
aI5
aI368
aI0
aI9
aI0
aI81
aI7
aI82
aI6
aI5
aI4
aI0
aI1
aI8
aI4
aI47
aI5
aI10
aI0
aI11
aI8
aI22
aI2
aI2
aI0
aI6
aI0
aI1
aI30
aI88
aI11
aI22
aI38
aI30
aI1
aI8
aI168
aI10
aI1
aI2
aI7
aI0
aI5
aI6
aI5
aI4
aI4
aI0
aI6
aI2
aI5
aI430
aI3
aI21
aI0
aI5
aI2
aI1
aI1
aI13
aI2
aI4
aI8
aI6
aI3
aI7
aI5
aI5
aI35
aI6
aI0
aI7
aI6
aI62
aI18
aI7
aI40
aI27
aI6
aI30
aI6
aI8
aI5
aI7
aI5
aI88
aI0
aI9
aI5
aI4
aI88
aI5
aI27
aI7
aI21
aI0
aI132
aI4
aI14
aI23
aI31
aI0
aI16
aI6
aI28
aI29
aI3
aI460
aI8
aI0
aI0
aI4
aI53
aI1
aI5
aI12
aI8
aI6
aI5
aI7
aI0
aI7
aI0
aI0
aI64
aI10
aI8
aI15
aI5
aI13
aI79
aI6
aI0
aI4
aI6
aI0
aI146
aI208
aI24
aI9
aI2
aI1
aI55
aI2
aI5
aI5
aI7
aI1
aI0
aI5
aI4
aI6
aI7
aI2
aI20
aI2
aI1
aI8
aI0
aI3
aI3
aI6
aI0
aI1
aI9
aI14
aI23
aI0
aI8
aI9
aI6
aI52
aI25
aI6
aI6
aI0
aI14
aI1
aI15
aI6
aI8
aI0
aI16
aI34
aI0
aI0
aI1
aI28
aI1
aI14
aI5
aI5
aI3
aI4
aI10
aI30
aI3
aI89
aI0
aI3
aI5
aI0
aI9
aI111
aI2
aI168
aI0
aI3
aI6
aI0
aI3
aI6
aI2
aI44
aI8
aI5
aI0
aI1
aI4
aI2
aI27
aI0
aI1
aI111
aI9
aI0
aI14
aI7
aI5
aI6
aI5
aI6
aI7
aI32
aI7
aI15
aI0
aI3
aI0
aI3
aI22
aI1
aI51
aI0
aI0
aI3
aI16
aI9
aI10
aI7
aI10
aI0
aI40
aI12
aI1
aI8
aI36
aI20
aI5
aI0
aI7
aI12
aI5
aI0
aI20
aI9
aI53
aI0
aI6
aI8
aI42
aI0
aI34
aI2
aI1
aI0
aI15
aI0
aI12
aI5
aI6
aI0
aI8
aI5
aI6
aI5
aI0
aI1
aI5
aI6
aI104
aI6
aI8
aI23
aI0
aI10
aI5
aI71
aI95
aI6
aI8
aI17
aI49
aI0
aI12
aI5
aI57
aI6
aI0
aI5
aI47
aI12
aI4
aI1
aI4
aI0
aI6
aI18
aI42
aI0
aI0
aI87
aI7
aI7
aI5
aI27
aI5
aI5
aI7
aI0
aI5
aI238
aI13
aI5
aI30
aI7
aI5
aI8
aI3
aI7
aI24
aI0
aI11
aI3
aI1
aI6
aI1
aI19
aI3
aI232
aI10
aI4
aI51
aI5
aI26
aI7
aI2
aI29
aI489
aI89
aI1
aI0
aI0
aI5
aI0
aI13
aI6
aI0
aI6
aI7
aI25
aI208
aI0
aI0
aI15
aI5
aI36
aI2
aI0
aI10
aI8
aI607
aI38
aI0
aI28
aI5
aI91
aI5
aI0
aI22
aI8
aI6
aI15
aI2
aI8
aI6
aI0
aI0
aI7
aI7
aI17
aI6
aI0
aI1
aI6
aI0
aI8
aI13
aI1
aI0
aI27
aI0
aI1
aI5
aI2
aI0
aI3
aI7
aI5
aI10
aI5
aI6
aI6
aI7
aI5
aI0
aI2
aI0
aI0
aI0
aI850
aI7
aI8
aI14
aI0
aI57
aI0
aI0
aI6
aI5
aI0
aI1
aI10
aI4
aI0
aI8
aI0
aI0
aI11
aI5
aI5
aI0
aI0
aI1
aI2681
aI10
aI48
aI10
aI39
aI6
aI0
aI5
aI0
aI13
aI9
aI1
aI2
aI6
aI3
aI13
aI0
aI5
aI6
aI0
aI6
aI52
aI8
aI6
aI7
aI14
aI0
aI19
aI0
aI3
aI16
aI6
aI0
aI3
aI31
aI91
aI0
aI3
aI5
aI5
aI19
aI11
aI5
aI5
aI4
aI0
aI3
aI7
aI0
aI10
aI1
aI3
aI0
aI13
aI5
aI4
aI0
aI10
aI3
aI19
aI5
aI32
aI26
aI7
aI27
aI1
aI0
aI8
aI7
aI24
aI12
aI7
aI6
aI0
aI0
aI10
aI0
aI17
aI0
aI9
aI5
aI7
aI0
aI11
aI0
aI4
aI9
aI38
aI19
aI5
aI8
aI2
aI1
aI7
aI8
aI7
aI0
aI22
aI89
aI0
aI5
aI14
aI0
aI9
aI25
aI15
aI0
aI208
aI4
aI8
aI3
aI1
aI30
aI5
aI0
aI4
aI255
aI0
aI3
aI64
aI0
aI428
aI55
aI4
aI9
aI0
aI6
aI3
aI12
aI9
aI460
aI7
aI14
aI7
aI0
aI0
aI6
aI0
aI8
aI1
aI54
aI5
aI5
aI0
aI252
aI225
aI6
aI5
aI0
aI5
aI5
aI7
aI1
aI32
aI18
aI5
aI0
aI7
aI2
aI0
aI6
aI7
aI10
aI9
aI5
aI6
aI0
aI1893
aI161
aI6
aI16
aI8
aI827
aI8
aI0
aI25
aI0
aI31
aI16
aI5
aI6
aI7
aI0
aI6
aI2
aI12
aI4
aI5
aI8
aI7
aI3
aI0
aI8
aI14
aI258
aI5
aI7
aI5
aI3
aI9
aI46
aI16
aI5
aI106
aI0
aI8
aI5
aI0
aI0
aI10
aI13
aI234
aI135
aI5
aI6
aI9
aI7
aI5
aI34
aI0
aI0
aI5
aI0
aI0
aI5
aI160
aI6
aI3
aI0
aI6
aI13
aI14
aI0
aI17
aI91
aI1
aI0
aI18
aI9
aI9
aI0
aI2
aI7
aI27
aI10
aI5
aI2
aI5
aI79
aI13
aI5
aI9
aI6
aI8
aI7
aI2
aI0
aI7
aI2
aI5
aI10
aI8
aI6
aI22
aI4
aI0
aI2
aI4
aI0
aI10
aI1
aI0
aI0
aI4
aI5
aI5
aI5
aI5
aI27
aI2
aI16
aI10
aI3
aI1
aI255
aI12
aI3
aI0
aI2
aI14
aI0
aI66
aI0
aI0
aI6
aI2
aI13
aI94
aI0
aI4
aI12
aI8
aI154
aI8
aI7
aI13
aI12
aI13
aI9
aI0
aI78
aI7
aI0
aI18
aI2
aI5
aI14
aI6
aI3
aI0
aI0
aI7
aI3
aI0
aI7
aI6
aI3
aI0
aI17
aI5
aI13
aI0
aI7
aI15
aI5
aI7
aI29
aI19
aI0
aI11
aI2
aI5
aI0
aI0
aI0
aI1
aI5
aI13
aI0
aI9
aI12
aI2
aI10
aI0
aI6
aI1
aI5
aI14
aI6
aI44
aI0
aI79
aI3
aI2
aI1
aI6
aI5
aI5
aI5
aI6
aI282
aI0
aI120
aI1
aI7
aI87
aI738
aI2
aI42
aI3
aI0
aI0
aI0
aI3
aI10
aI0
aI30
aI0
aI39
aI5
aI47
aI7
aI0
aI8
aI0
aI13
aI19
aI6
aI0
aI7
aI2
aI6
aI11
aI35
aI1
aI6
aI10
aI97
aI5
aI6
aI5
aI1
aI2
aI18
aI10
aI7
aI5
aI2
aI13
aI6
aI2
aI8
aI7
aI6
aI8
aI6
aI31
aI3
aI1
aI1
aI8
aI7
aI0
aI18
aI0
aI4
aI5
aI12
aI0
aI13
aI8
aI112
aI0
aI11
aI0
aI8
aI18
aI6
aI0
aI6
aI0
aI7
aI24
aI2
aI7
aI44
aI7
aI171
aI7
aI5
aI7
aI6
aI7
aI12
aI1
aI0
aI20
aI0
aI1
aI2
aI5
aI13
aI5
aI3
aI4
aI425
aI15
aI5
aI35
aI74
aI6
aI0
aI5
aI0
aI0
aI5
aI0
aI20
aI5
aI0
aI2
aI6
aI5
aI85
aI23
aI6
aI1
aI9
aI1
aI0
aI5
aI40
aI12
aI0
aI77
aI7
aI6
aI173
aI2
aI6
aI8
aI5
aI21
aI1
aI6
aI4
aI46
aI0
aI0
aI5
aI6
aI12
aI1
aI7
aI283
aI0
aI2
aI7
aI1
aI36
aI39
aI6
aI6
aI5
aI0
aI6
aI5
aI7
aI2
aI2
aI47
aI0
aI121
aI7
aI0
aI13
aI11
aI10
aI0
aI15
aI41
aI5
aI0
aI0
aI0
aI32
aI7
aI5
aI4
aI35
aI0
aI5
aI2
aI0
aI6
aI0
aI0
aI26
aI0
aI6
aI0
aI8
aI177
aI7
aI5
aI0
aI44
aI6
aI31
aI6
aI4
aI0
aI72
aI18
aI143
aI38
aI16
aI19
aI6
aI17
aI8
aI6
aI5
aI14
aI4
aI0
aI4
aI0
aI108
aI4
aI6
aI7
aI11
aI0
aI4
aI7
aI15
aI39
aI9
aI30
aI0
aI14
aI12
aI10
aI2
aI6
aI17
aI9
aI7
aI0
aI0
aI0
aI206
aI5
aI5
aI0
aI5
aI36
aI5
aI0
aI0
aI1
aI5
aI6
aI4
aI0
aI1
aI1
aI6
aI10
aI4
aI19
aI6
aI34
aI8
aI0
aI11
aI22
aI2
aI0
aI825
aI4
aI2
aI0
aI6
aI0
aI9
aI6
aI0
aI186
aI8
aI238
aI5
aI7
aI16
aI1
aI20
aI12
aI11
aI4
aI2
aI6
aI12
aI89
aI0
aI4
aI3
aI1
aI8
aI13
aI2
aI8
aI32
aI5
aI1
aI18
aI0
aI6
aI5
aI5
aI16
aI2
aI5
aI0
aI25
aI0
aI6
aI25
aI5
aI45
aI5
aI0
aI5
aI0
aI12
aI3
aI4
aI7
aI25
aI7
aI0
aI2
aI5
aI7
aI17
aI67
aI1
aI1
aI8
aI0
aI6
aI6
aI10
aI4
aI5
aI5
aI139
aI152
aI0
aI1
aI4
aI6
aI7
aI11
aI2
aI0
aI5
aI7
aI19
aI3
aI3
aI14
aI86
aI0
aI5
aI6
aI2
aI0
aI115
aI3
aI42
aI1
aI0
aI16
aI18
aI0
aI47
aI14
aI3
aI37
aI27
aI6
aI12
aI17
aI3
aI6
aI3
aI7
aI2
aI0
aI3
aI5
aI4
aI0
aI9
aI7
aI5
aI5
aI16
aI5
aI0
aI937
aI0
aI0
aI0
aI10
aI9
aI49
aI0
aI2
aI15
aI40
aI5
aI51
aI0
aI0
aI5
aI0
aI7
aI0
aI0
aI13
aI6
aI8
aI5
aI48
aI8
aI8
aI6
aI44
aI5
aI23
aI5
aI111
aI4
aI0
aI144
aI23
aI5
aI18
aI1
aI0
aI0
aI14
aI5
aI10
aI92
aI6
aI5
aI1
aI0
aI12
aI435
aI14
aI7
aI2
aI0
aI2
aI10
aI12
aI12
aI6
aI0
aI1
aI5
aI34
aI4
aI282
aI5
aI9
aI12
aI97
aI6
aI1
aI23
aI5
aI6
aI1
aI8
aI279
aI0
aI17
aI4
aI7
aI133
aI0
aI10
aI7
aI53
aI0
aI17
aI5
aI43
aI4
aI6
aI8
aI10
aI8
aI12
aI0
aI10
aI0
aI16
aI7
aI15
aI2
aI17
aI0
aI17
aI1
aI9
aI24
aI20
aI6
aI0
aI1
aI2
aI0
aI26
aI36
aI4
aI5
aI209
aI0
aI3
aI0
aI5
aI0
aI11
aI243
aI7
aI23
aI3
aI5
aI22
aI4
aI8
aI2
aI36
aI7
aI0
aI11
aI7
aI2
aI3
aI2
aI0
aI35
aI0
aI5
aI1
aI5
aI46
aI5
aI9
aI0
aI30
aI3
aI0
aI4
aI0
aI59
aI7
aI5
aI1
aI10
aI0
aI6
aI6
aI19
aI10
aI5
aI7
aI0
aI6
aI14
aI0
aI39
aI5
aI6
aI5
aI578
aI5
aI86
aI9
aI5
aI0
aI6
aI8
aI23
aI5
aI5
aI10
aI35
aI5
aI5
aI528
aI7
aI5
aI30
aI57
aI0
aI4
aI0
aI4
aI6
aI0
aI332
aI16
aI6
aI6
aI7
aI11
aI0
aI5
aI6
aI5
aI4
aI5
aI1
aI11
aI0
aI2
aI0
aI0
aI36
aI9
aI0
aI6
aI7
aI0
aI6
aI0
aI6
aI3
aI2
aI9
aI8
aI5
aI7
aI5
aI154
aI314
aI5
aI21
aI0
aI12
aI7
aI28
aI0
aI2
aI3
aI109
aI18
aI6
aI6
aI0
aI8
aI32
aI294
aI5
aI5
aI44
aI2
aI175
aI7
aI17
aI0
aI12
aI4
aI35
aI39
aI2
aI0
aI0
aI601
aI5
aI20
aI18
aI0
aI9
aI1
aI72
aI2
aI6
aI17
aI2
aI5
aI5
aI4
aI0
aI7
aI2
aI8
aI3
aI23
aI2
aI53
aI0
aI9
aI0
aI6
aI5
aI15
aI0
aI7
aI1
aI2
aI22
aI0
aI9
aI9
aI19
aI11
aI7
aI0
aI0
aI1
aI2
aI5
aI11
aI5
aI0
aI0
aI0
aI9
aI8
aI0
aI3
aI11
aI0
aI121
aI1
aI5
aI15
aI0
aI5
aI0
aI24
aI6
aI6
aI2
aI5
aI0
aI3
aI65
aI2
aI5
aI5
aI5
aI82
aI0
aI0
aI17
aI21
aI0
aI0
aI2
aI8
aI0
aI6
aI9
aI8
aI39
aI8
aI12
aI24
aI21
aI9
aI5
aI0
aI7
aI6
aI5
aI758
aI47
aI1
aI7
aI3
aI0
aI0
aI6
aI2
aI0
aI8
aI3
aI7
aI0
aI3
aI0
aI19
aI12
aI8
aI1
aI23
aI10
aI0
aI64
aI0
aI6
aI153
aI21
aI16
aI3
aI6
aI6
aI18
aI4
aI0
aI11
aI9
aI4
aI35
aI16
aI0
aI0
aI27
aI5
aI89
aI4
aI36
aI5
aI0
aI6
aI5
aI5
aI0
aI0
aI0
aI11
aI0
aI5
aI6
aI9
aI19
aI5
aI0
aI2
aI2
aI0
aI3
aI5
aI0
aI6
aI5
aI245
aI6
aI6
aI2
aI13
aI3
aI5
aI0
aI179
aI20
aI5
aI29
aI0
aI0
aI5
aI1
aI13
aI21
aI0
aI8
aI8
aI4
aI2
aI0
aI41
aI8
aI5
aI5
aI0
aI3
aI29
aI27
aI0
aI5
aI45
aI16
aI0
aI7
aI6
aI658
aI6
aI32
aI3
aI22
aI0
aI10
aI5
aI6
aI5
aI5
aI3
aI2
aI0
aI0
aI0
aI0
aI1
aI70
aI4
aI10
aI7
aI9
aI1
aI15
aI1
aI7
aI5
aI1
aI0
aI19
aI108
aI13
aI0
aI7
aI172
aI8
aI9
aI32
aI0
aI10
aI12
aI1
aI5
aI18
aI6
aI0
aI1
aI5
aI63
aI3
aI13
aI7
aI20
aI12
aI0
aI6
aI1
aI0
aI8
aI5
aI0
aI10
aI23
aI60
aI5
aI5
aI7
aI1
aI39
aI8
aI5
aI0
aI0
aI10
aI4
aI30
aI5
aI0
aI7
aI6
aI11
aI2
aI6
aI5
aI13
aI22
aI6
aI5
aI7
aI0
aI9
aI5
aI0
aI0
aI178
aI1
aI1
aI7
aI21
aI0
aI13
aI1
aI3
aI7
aI1
aI0
aI0
aI6
aI0
aI5
aI3
aI6
aI12
aI0
aI6
aI9
aI7
aI7
aI25
aI8
aI8
aI6
aI3
aI5
aI19
aI8
aI17
aI11
aI5
aI11
aI13
aI89
aI9
aI52
aI3
aI35
aI0
aI124
aI2
aI0
aI6
aI151
aI6
aI21
aI416
aI12
aI11
aI5
aI6
aI6
aI79
aI0
aI6
aI8
aI8
aI5
aI6
aI5
aI6
aI4
aI114
aI188
aI2
aI0
aI0
aI0
aI3
aI3
aI0
aI1
aI5
aI1
aI5
aI14
aI7
aI6
aI6
aI11
aI7
aI0
aI6
aI1
aI31
aI0
aI5
aI5
aI2
aI22
aI3
aI9
aI4
aI0
aI25
aI16
aI414
aI97
aI8
aI0
aI0
aI3
aI16
aI11
aI6
aI8
aI9
aI8
aI5
aI5
aI28
aI7
aI0
aI1
aI5
aI1
aI4
aI0
aI1
aI53
aI5
aI13
aI5
aI0
aI5
aI0
aI0
aI4
aI61
aI17
aI2
aI0
aI0
aI1
aI14
aI6
aI4
aI161
aI0
aI5
aI1
aI8
aI6
aI8
aI18
aI16
aI240
aI5
aI3
aI10
aI15
aI25
aI3
aI0
aI0
aI0
aI5
aI6
aI3
aI5
aI8
aI3
aI5
aI7
aI6
aI26
aI6
aI9
aI5
aI4
aI10
aI1
aI6
aI0
aI6
aI163
aI0
aI2
aI1
aI4
aI5
aI13
aI6
aI63
aI6
aI5
aI1
aI8
aI0
aI140
aI18
aI7
aI1
aI4
aI0
aI26
aI42
aI5
aI7
aI108
aI85
aI15
aI0
aI25
aI8
aI5
aI0
aI0
aI8
aI0
aI15
aI5
aI5
aI202
aI4
aI54
aI9
aI2
aI5
aI6
aI49
aI5
aI1
aI0
aI60
aI7
aI5
aI10
aI10
aI0
aI45
aI9
aI5
aI0
aI5
aI5
aI6
aI4
aI3
aI3
aI13
aI118
aI0
aI5
aI10
aI2
aI0
aI2
aI0
aI0
aI104
aI0
aI5
aI7
aI66
aI12
aI1
aI1
aI5
aI19
aI14
aI5
aI136
aI26
aI7
aI0
aI61
aI10
aI6
aI0
aI3
aI8
aI49
aI42
aI6
aI11
aI1
aI12
aI22
aI6
aI5
aI3
aI7
aI7
aI6
aI7
aI0
aI6
aI6
aI0
aI14
aI29
aI12
aI1
aI4
aI0
aI0
aI0
aI6
aI5
aI3
aI9
aI9
aI0
aI0
aI8
aI5
aI10
aI9
aI0
aI13
aI6
aI5
aI0
aI5
aI18
aI0
aI7
aI14
aI5
aI9
aI0
aI4
aI7
aI16
aI1
aI0
aI153
aI5
aI165
aI7
aI12
aI27
aI35
aI0
aI251
aI2
aI7
aI3
aI10
aI31
aI5
aI46
aI103
aI7
aI1
aI236
aI10
aI0
aI6
aI22
aI0
aI6
aI7
aI5
aI10
aI8
aI67
aI5
aI5
aI13
aI5
aI5
aI5
aI7
aI4
aI11
aI1
aI7
aI9
aI9
aI6
aI5
aI39
aI9
aI26
aI5
aI23
aI6
aI5
aI25
aI6
aI0
aI3
aI7
aI5
aI5
aI6
aI5
aI7
aI6
aI1
aI5
aI7
aI2
aI0
aI24
aI11
aI0
aI3
aI7
aI5
aI7
aI25
aI82
aI20
aI5
aI7
aI0
aI5
aI28
aI188
aI32
aI6
aI2
aI5
aI6
aI11
aI60
aI7
aI9
aI50
aI3
aI1
aI18
aI3
aI0
aI0
aI3
aI7
aI6
aI10
aI7
aI0
aI1
aI1
aI19
aI1
aI191
aI30
aI6
aI3
aI7
aI31
aI5
aI16
aI7
aI13
aI99
aI12
aI4
aI5
aI1
aI6
aI0
aI5
aI7
aI426
aI5
aI13
aI0
aI4
aI20
aI8
aI0
aI6
aI5
aI8
aI3
aI6
aI2
aI16
aI8
aI115
aI0
aI2
aI3
aI14
aI0
aI1
aI1
aI0
aI12
aI23
aI9
aI1
aI6
aI0
aI1
aI1
aI56
aI18
aI71
aI5
aI117
aI2
aI156
aI8
aI0
aI1
aI6
aI36
aI26
aI5
aI5
aI5
aI1
aI7
aI12
aI0
aI2
aI27
aI8
aI2
aI31
aI7
aI7
aI8
aI8
aI6
aI1
aI3
aI1
aI16
aI6
aI5
aI74
aI7
aI8
aI7
aI0
aI5
aI1
aI14
aI258
aI14
aI7
aI0
aI40
aI7
aI1
aI5
aI5
aI25
aI32
aI17
aI10
aI0
aI0
aI2
aI498
aI0
aI2
aI1
aI0
aI0
aI3
aI5
aI5
aI649
aI4
aI1
aI4
aI2
aI0
aI89
aI0
aI30
aI5
aI1
aI6
aI13
aI7
aI99
aI38
aI10
aI7
aI0
aI7
aI25
aI81
aI11
aI9
aI10
aI3
aI8
aI13
aI7
aI5
aI18
aI1
aI3
aI0
aI21
aI0
aI16
aI7
aI7
aI0
aI0
aI0
aI6
aI3
aI0
aI81
aI2
aI5
aI5
aI4
aI0
aI183
aI121
aI5
aI5
aI5
aI0
aI5
aI1
aI9
aI2
aI12
aI0
aI0
aI5
aI0
aI2
aI1
aI2
aI8
aI6
aI38
aI13
aI1
aI5
aI0
aI14
aI10
aI6
aI5
aI2
aI6
aI2
aI10
aI6
aI38
aI279
aI6
aI20
aI2
aI35
aI6
aI7
aI5
aI6
aI2
aI19
aI19
aI8
aI4
aI0
aI40
aI15
aI32
aI6
aI0
aI0
aI6
aI7
aI0
aI2
aI339
aI17
aI1
aI23
aI7
aI198
aI3
aI1
aI6
aI11
aI67
aI4
aI15
aI5
aI5
aI9
aI8
aI6
aI3
aI6
aI14
aI2
aI97
aI9
aI5
aI7
aI8
aI44
aI13
aI10
aI34
aI4
aI7
aI158
aI7
aI0
aI0
aI5
aI6
aI2
aI57
aI5
aI5
aI6
aI0
aI8
aI122
aI5
aI1
aI0
aI5
aI238
aI8
aI3
aI4
aI0
aI62
aI1
aI46
aI0
aI5
aI5
aI0
aI3
aI98
aI6
aI0
aI6
aI19
aI6
aI6
aI92
aI3
aI21
aI8
aI6
aI162
aI3
aI6
aI5
aI1
aI25
aI6
aI5
aI5
aI1
aI51
aI470
aI6
aI3
aI2
aI76
aI8
aI30
aI0
aI5
aI13
aI6
aI6
aI6
aI6
aI5
aI0
aI6
aI0
aI0
aI10
aI6
aI7
aI0
aI6
aI15
aI57
aI2
aI225
aI0
aI9
aI19
aI8
aI13
aI2
aI63
aI3
aI95
aI0
aI97
aI5
aI5
aI5
aI2
aI0
aI11
aI5
aI1
aI19
aI0
aI1
aI8
aI16
aI0
aI84
aI52
aI4
aI2
aI0
aI15
aI13
aI6
aI4
aI44
aI8
aI11
aI21
aI1
aI5
aI9
aI1
aI67
aI454
aI0
aI5
aI115
aI5
aI6
aI12
aI9
aI6
aI73
aI3
aI326
aI0
aI5
aI8
aI1
aI15
aI3
aI15
aI12
aI1
aI33
aI10
aI0
aI75
aI0
aI21
aI162
aI160
aI1
aI11
aI0
aI11
aI9
aI28
aI5
aI2
aI49
aI0
aI2
aI260
aI15
aI8
aI5
aI5
aI3
aI5
aI5
aI0
aI6
aI124
aI5
aI937
aI0
aI0
aI24
aI28
aI3
aI4
aI0
aI9
aI5
aI6
aI6
aI6
aI6
aI5
aI1
aI0
aI6
aI13
aI12
aI1
aI7
aI17
aI107
aI46
aI5
aI13
aI5
aI4
aI2
aI14
aI0
aI0
aI2
aI10
aI5
aI183
aI8
aI0
aI4
aI212
aI0
aI2
aI1
aI4
aI2
aI5
aI10
aI9
aI8
aI0
aI812
aI2
aI86
aI6
aI4
aI8
aI0
aI20
aI14
aI2
aI20
aI209
aI5
aI57
aI6
aI3
aI7
aI4
aI0
aI0
aI8
aI3
aI17
aI33
aI5
aI18
aI50
aI72
aI1
aI6
aI4
aI5
aI27
aI0
aI1
aI2
aI1340
aI5
aI0
aI6
aI5
aI4
aI117
aI61
aI264
aI5
aI12
aI8
aI7
aI2
aI5
aI2
aI0
aI25
aI3
aI13
aI3
aI9
aI7
aI5
aI28
aI5
aI6
aI4
aI5
aI0
aI7
aI0
aI0
aI138
aI18
aI0
aI11
aI0
aI6
aI4
aI0
aI8
aI2
aI7
aI12
aI20
aI41
aI1
aI7
aI0
aI0
aI17
aI0
aI15
aI6
aI6
aI3
aI5
aI7
aI5
aI5
aI22
aI6
aI6
aI30
aI5
aI6
aI5
aI0
aI39
aI0
aI3
aI6
aI6
aI5
aI32
aI5
aI0
aI6
aI5
aI0
aI23
aI4
aI5
aI0
aI0
aI16
aI5
aI802
aI5
aI11
aI7
aI5
aI0
aI5
aI8
aI1
aI20
aI5
aI1
aI6
aI5
aI0
aI12
aI0
aI83
aI4
aI8
aI0
aI5
aI0
aI2
aI6
aI10
aI0
aI3
aI7
aI7
aI14
aI3
aI7
aI5
aI0
aI5
aI0
aI2
aI0
aI26
aI6
aI7
aI244
aI0
aI29
aI2
aI3
aI0
aI76
aI35
aI5
aI0
aI8
aI16
aI7
aI117
aI0
aI0
aI5
aI3
aI2
aI5
aI0
aI12
aI6
aI9
aI16
aI0
aI36
aI1
aI0
aI6
aI8
aI327
aI47
aI0
aI2
aI70
aI2
aI5
aI2
aI1
aI8
aI20
aI55
aI7
aI6
aI6
aI16
aI1
aI5
aI43
aI5
aI91
aI3
aI1
aI2
aI0
aI0
aI0
aI5
aI3
aI2
aI0
aI5
aI2
aI0
aI99
aI5
aI8
aI16
aI0
aI51
aI7
aI6
aI6
aI7
aI24
aI79
aI6
aI14
aI2
aI1
aI20
aI25
aI8
aI6
aI2
aI5
aI1
aI8
aI4
aI1
aI25
aI1
aI3
aI3
aI3
aI419
aI33
aI5
aI0
aI0
aI9
aI7
aI6
aI3
aI11
aI3
aI4
aI1
aI5
aI11
aI56
aI67
aI9
aI5
aI13
aI5
aI0
aI5
aI0
aI8
aI0
aI14
aI5
aI22
aI12
aI1
aI6
aI1
aI5
aI1
aI5
aI5
aI4
aI68
aI9
aI0
aI8
aI6
aI3
aI5
aI6
aI0
aI19
aI10
aI6
aI70
aI170
aI5
aI6
aI9
aI45
aI5
aI0
aI0
aI5
aI5
aI391
aI2
aI14
aI8
aI0
aI6
aI7
aI23
aI1
aI26
aI2
aI2
aI0
aI6
aI4
aI5
aI0
aI4
aI2
aI12
aI20
aI1
aI0
aI52
aI55
aI0
aI0
aI5
aI6
aI36
aI8
aI0
aI5
aI5
aI6
aI42
aI14
aI1
aI2
aI27
aI5
aI5
aI26
aI16
aI23
aI210
aI4
aI7
aI1
aI220
aI5
aI7
aI20
aI11
aI11
aI7
aI26
aI12
aI13
aI0
aI46
aI3
aI15
aI0
aI19
aI21
aI6
aI0
aI24
aI108
aI149
aI3
aI3
aI5
aI250
aI11
aI5
aI1
aI6
aI0
aI9
aI9
aI6
aI6
aI5
aI6
aI14
aI0
aI15
aI211
aI5
aI1
aI6
aI5
aI1
aI115
aI5
aI9
aI25
aI11
aI6
aI5
aI0
aI11
aI0
aI0
aI1
aI0
aI11
aI0
aI54
aI7
aI2
aI0
aI5
aI1
aI11
aI164
aI17
aI0
aI5
aI6
aI6
aI64
aI5
aI8
aI5
aI20
aI2
aI0
aI0
aI8
aI9
aI3
aI1
aI6
aI7
aI5
aI5
aI0
aI24
aI4
aI0
aI6
aI83
aI2
aI2
aI41
aI49
aI7
aI190
aI7
aI533
aI0
aI0
aI4
aI47
aI5
aI0
aI150
aI14
aI9
aI21
aI53
aI0
aI5
aI0
aI0
aI57
aI90
aI2
aI5
aI192
aI4
aI30
aI6
aI173
aI4
aI145
aI5
aI8
aI51
aI7
aI7
aI7
aI1
aI7
aI51
aI10
aI32
aI1
aI1
aI59
aI103
aI3
aI5
aI10
aI5
aI6
aI6
aI2
aI7
aI3
aI3
aI5
aI13
aI5
aI0
aI25
aI0
aI8
aI22
aI7
aI1
aI7
aI20
aI222
aI0
aI0
aI5
aI0
aI0
aI37
aI5
aI4
aI116
aI9
aI9
aI10
aI5
aI5
aI2
aI8
aI2
aI2
aI1
aI5
aI0
aI22
aI4
aI8
aI0
aI6
aI10
aI5
aI5
aI17
aI7
aI3
aI0
aI121
aI0
aI12
aI5
aI0
aI5
aI5
aI6
aI7
aI5
aI5
aI0
aI209
aI0
aI45
aI0
aI0
aI6
aI24
aI1
aI6
aI0
aI7
aI2
aI0
aI31
aI1
aI19
aI30
aI0
aI6
aI10
aI0
aI6
aI0
aI7
aI5
aI7
aI46
aI2
aI5
aI6
aI2
aI5
aI16
aI8
aI12
aI4
aI16
aI5
aI0
aI1
aI109
aI84
aI5
aI0
aI5
aI14
aI0
aI8
aI5
aI0
aI5
aI4
aI27
aI11
aI7
aI5
aI5
aI11
aI1
aI5
aI5
aI0
aI15
aI6
aI17
aI3
aI5
aI3
aI0
aI0
aI16
aI84
aI0
aI16
aI20
aI0
aI13
aI3
aI3
aI5
aI5
aI6
aI0
aI8
aI0
aI5
aI0
aI7
aI3
aI11
aI16
aI1
aI0
aI0
aI18
aI5
aI0
aI21
aI6
aI9
aI0
aI0
aI121
aI0
aI68
aI1
aI5
aI6
aI61
aI4
aI7
aI18
aI0
aI0
aI14
aI120
aI5
aI26
aI5
aI14
aI4
aI51
aI0
aI1
aI6
aI5
aI2
aI8
aI6
aI16
aI12
aI2
aI1
aI8
aI9
aI17
aI11
aI6
aI0
aI3
aI6
aI7
aI1
aI1
aI8
aI0
aI12
aI6
aI12
aI5
aI44
aI20
aI1
aI45
aI3
aI5
aI10
aI3
aI3
aI5
aI1
aI471
aI5
aI1
aI0
aI42
aI12
aI5
aI2
aI0
aI55
aI10
aI60
aI11
aI9
aI6
aI7
aI4
aI371
aI7
aI8
aI21
aI5
aI5
aI5
aI0
aI1
aI0
aI36
aI10
aI136
aI7
aI8
aI7
aI5
aI7
aI6
aI16
aI5
aI2
aI6
aI11
aI0
aI0
aI11
aI0
aI0
aI5
aI6
aI9
aI2
aI27
aI0
aI1
aI0
aI7
aI12
aI13
aI0
aI2
aI6
aI14
aI0
aI8
aI4
aI0
aI1
aI3
aI0
aI8
aI6
aI0
aI6
aI1
aI0
aI7
aI2
aI16
aI51
aI0
aI22
aI13
aI29
aI2
aI273
aI1
aI5
aI160
aI3
aI4
aI0
aI1
aI1
aI7
aI0
aI11
aI10
aI0
aI3
aI5
aI0
aI6
aI4
aI6
aI6
aI18
aI23
aI0
aI6
aI6
aI4
aI111
aI0
aI5
aI1
aI85
aI7
aI9
aI6
aI7
aI0
aI17
aI6
aI13
aI5
aI0
aI0
aI89
aI611
aI8
aI7
aI1
aI5
aI6
aI5
aI4
aI0
aI5
aI6
aI5
aI17
aI5
aI8
aI1
aI4
aI5
aI13
aI7
aI8
aI0
aI0
aI5
aI10
aI11
aI0
aI3
aI17
aI4
aI51
aI12
aI7
aI5
aI166
aI0
aI110
aI0
aI70
aI1
aI0
aI8
aI5
aI0
aI7
aI5
aI26
aI4
aI216
aI0
aI7
aI0
aI7
aI10
aI5
aI3
aI5
aI22
aI6
aI11
aI6
aI6
aI2
aI0
aI0
aI11
aI0
aI0
aI1
aI5
aI7
aI0
aI1
aI1
aI2
aI2
aI1
aI4
aI0
aI5
aI193
aI5
aI13
aI0
aI63
aI6
aI4
aI18
aI6
aI6
aI39
aI11
aI5
aI11
aI11
aI14
aI26
aI8
aI52
aI8
aI19
aI57
aI3
aI1
aI5
aI6
aI3
aI0
aI87
aI5
aI7
aI5
aI47
aI12
aI4
aI21
aI4
aI1
aI0
aI5
aI0
aI7
aI14
aI7
aI5
aI5
aI0
aI10
aI7
aI6
aI37
aI188
aI5
aI0
aI7
aI5
aI5
aI3
aI19
aI85
aI6
aI1
aI6
aI2
aI5
aI5
aI5
aI0
aI23
aI0
aI18
aI135
aI9
aI6
aI63
aI7
aI0
aI6
aI6
aI10
aI19
aI2
aI6
aI29
aI5
aI6
aI3
aI176
aI5
aI5
aI10
aI5
aI5
aI19
aI0
aI1
aI5
aI6
aI8
aI0
aI12
aI5
aI5
aI8
aI6
aI2
aI8
aI1
aI2
aI5
aI20
aI205
aI1
aI3
aI10
aI46
aI5
aI3
aI8
aI5
aI59
aI5
aI8
aI7
aI8
aI42
aI0
aI6
aI0
aI55
aI3
aI6
aI6
aI0
aI37
aI0
aI5
aI12
aI0
aI5
aI0
aI18
aI5
aI2
aI9
aI0
aI22
aI0
aI0
aI10
aI5
aI5
aI374
aI5
aI5
aI6
aI0
aI5
aI30
aI26
aI2
aI0
aI5
aI74
aI0
aI0
aI14
aI3
aI0
aI54
aI7
aI5
aI3
aI2
aI1
aI23
aI7
aI7
aI0
aI5
aI5
aI54
aI0
aI14
aI5
aI0
aI15
aI1
aI6
aI524
aI7
aI5
aI0
aI3
aI106
aI6
aI3
aI3
aI5
aI0
aI0
aI15
aI48
aI7
aI2
aI0
aI1
aI65
aI1
aI56
aI6
aI4
aI3
aI5
aI4
aI5
aI15
aI0
aI0
aI0
aI4
aI0
aI163
aI7
aI2
aI7
aI8
aI1
aI7
aI1
aI21
aI144
aI11
aI12
aI6
aI0
aI264
aI3
aI6
aI0
aI5
aI22
aI5
aI6
aI11
aI0
aI24
aI0
aI6
aI11
aI6
aI9
aI25
aI2
aI6
aI1
aI7
aI1
aI7
aI5
aI3
aI7
aI3
aI3
aI0
aI2
aI1
aI10
aI9
aI0
aI4
aI0
aI9
aI8
aI12
aI7
aI5
aI6
aI2
aI10
aI0
aI5
aI0
aI5
aI2
aI33
aI7
aI9
aI8
aI5
aI91
aI5
aI407
aI10
aI0
aI2
aI6
aI5
aI4
aI0
aI4
aI0
aI8
aI104
aI4
aI3
aI0
aI24
aI3
aI5
aI3
aI20
aI10
aI8
aI28
aI9
aI124
aI0
aI0
aI7
aI2
aI118
aI586
aI5
aI5
aI31
aI5
aI0
aI13
aI7
aI6
aI5
aI0
aI0
aI15
aI23
aI5
aI1
aI0
aI0
aI0
aI1
aI6
aI0
aI5
aI0
aI6
aI14
aI4
aI0
aI0
aI4
aI8
aI11
aI0
aI3
aI5
aI3
aI5
aI5
aI0
aI5
aI10
aI21
aI1
aI8
aI10
aI0
aI12
aI6
aI0
aI6
aI5
aI2
aI3
aI5
aI5
aI6
aI55
aI13
aI55
aI6
aI6
aI0
aI42
aI3
aI3
aI6
aI2
aI0
aI26
aI3
aI6
aI11
aI164
aI0
aI21
aI0
aI5
aI0
aI31
aI108
aI6
aI5
aI11
aI11
aI35
aI51
aI0
aI7
aI5
aI7
aI51
aI5
aI3
aI25
aI0
aI4
aI32
aI7
aI1
aI34
aI5
aI0
aI25
aI6
aI168
aI5
aI38
aI6
aI5
aI5
aI306
aI5
aI1954
aI11
aI1
aI4
aI9
aI5
aI17
aI5
aI7
aI6
aI5
aI12
aI7
aI0
aI387
aI6
aI5
aI5
aI4
aI4
aI0
aI0
aI10
aI0
aI0
aI13
aI16
aI1
aI98
aI6
aI8
aI11
aI11
aI2
aI26
aI6
aI1
aI5
aI0
aI22
aI3
aI0
aI6
aI0
aI5
aI8
aI7
aI5
aI249
aI8
aI0
aI147
aI8
aI258
aI80
aI3
aI0
aI0
aI76
aI0
aI5
aI166
aI7
aI0
aI0
aI1
aI5
aI24
aI0
aI5
aI1
aI0
aI582
aI6
aI27
aI0
aI1
aI16
aI25
aI2
aI10
aI9
aI0
aI8
aI0
aI3
aI7
aI6
aI10
aI5
aI12
aI5
aI8
aI26
aI4
aI5
aI11
aI0
aI2
aI34
aI6
aI5
aI0
aI5
aI5
aI28
aI7
aI84
aI2
aI10
aI5
aI6
aI9
aI54
aI35
aI5
aI9
aI2
aI12
aI6
aI238
aI2
aI3
aI1
aI145
aI0
aI0
aI5
aI133
aI4
aI0
aI83
aI3
aI7
aI0
aI0
aI0
aI5
aI5
aI5
aI22
aI1
aI0
aI39
aI0
aI11
aI8
aI3
aI0
aI6
aI7
aI0
aI0
aI75
aI6
aI8
aI9
aI21
aI10
aI1
aI14
aI2
aI0
aI0
aI5
aI9
aI0
aI44
aI6
aI15
aI5
aI80
aI6
aI23
aI1
aI4
aI2
aI131
aI0
aI6
aI5
aI0
aI5
aI6
aI0
aI8
aI1
aI18
aI3
aI5
aI1
aI6
aI5
aI5
aI20
aI3
aI17
aI5
aI67
aI13
aI8
aI8
aI174
aI0
aI1
aI47
aI5
aI4
aI79
aI9
aI6
aI8
aI0
aI0
aI11
aI9
aI0
aI30
aI9
aI1
aI0
aI0
aI46
aI1
aI5
aI6
aI42
aI9
aI0
aI6
aI8
aI0
aI16
aI0
aI6
aI0
aI15
aI6
aI20
aI5
aI2
aI22
aI12
aI11
aI5
aI1
aI7
aI264
aI5
aI1
aI5
aI4
aI3
aI287
aI1
aI8
aI87
aI1
aI17
aI7
aI8
aI5
aI0
aI0
aI13
aI8
aI9
aI0
aI0
aI0
aI39
aI3
aI0
aI5
aI6
aI3
aI16
aI4
aI6
aI1
aI6
aI5
aI492
aI6
aI4
aI7
aI7
aI29
aI84
aI5
aI21
aI49
aI27
aI10
aI14
aI90
aI11
aI4
aI3
aI5
aI17
aI18
aI7
aI2
aI13
aI6
aI6
aI45
aI32
aI41
aI8
aI1
aI2
aI5
aI0
aI5
aI0
aI6
aI95
aI1
aI10
aI10
aI2
aI1
aI5
aI2
aI6
aI5
aI2
aI0
aI0
aI155
aI6
aI7
aI5
aI63
aI281
aI12
aI7
aI5
aI5
aI29
aI5
aI86
aI6
aI6
aI5
aI0
aI6
aI6
aI0
aI6
aI6
aI5
aI5
aI625
aI7
aI0
aI221
aI6
aI15
aI2
aI2
aI169
aI5
aI0
aI33
aI0
aI3
aI9
aI41
aI7
aI1
aI0
aI5
aI5
aI7
aI2
aI7
aI5
aI4
aI106
aI0
aI53
aI6
aI6
aI5
aI12
aI6
aI7
aI157
aI6
aI6
aI7
aI4
aI7
aI6
aI1
aI7
aI8
aI5
aI8
aI21
aI6
aI0
aI5
aI0
aI16
aI17
aI1
aI5
aI55
aI9
aI9
aI5
aI5
aI6
aI6
aI0
aI0
aI18
aI13
aI9
aI5
aI25
aI0
aI1
aI22
aI5
aI265
aI1
aI7
aI2
aI5
aI23
aI6
aI48
aI7
aI18
aI5
aI9
aI11
aI29
aI1
aI6
aI0
aI3
aI4
aI3
aI8
aI0
aI5
aI42
aI6
aI3
aI142
aI14
aI45
aI0
aI107
aI0
aI17
aI4
aI14
aI16
aI7
aI24
aI187
aI41
aI2
aI1
aI15
aI147
aI48
aI0
aI223
aI9
aI26
aI5
aI0
aI2
aI0
aI4
aI4
aI5
aI0
aI5
aI69
aI6
aI0
aI10
aI40
aI4
aI26
aI2
aI6
aI134
aI3
aI12
aI1
aI79
aI9
aI5
aI0
aI8
aI0
aI8
aI8
aI2
aI0
aI5
aI6
aI8
aI6
aI6
aI5
aI5
aI6
aI0
aI31
aI7
aI6
aI0
aI0
aI8
aI5
aI24
aI0
aI0
aI0
aI29
aI17
aI0
aI4
aI103
aI0
aI5
aI10
aI9
aI8
aI4
aI2
aI13
aI7
aI2
aI30
aI0
aI0
aI123
aI0
aI16
aI7
aI3
aI0
aI5
aI8
aI4
aI7
aI5
aI2
aI10
aI9
aI0
aI5
aI5
aI3
aI5
aI5
aI1
aI6
aI14
aI4
aI0
aI0
aI4
aI129
aI106
aI1
aI5
aI5
aI21
aI22
aI10
aI5
aI6
aI13
aI5
aI17
aI4
aI89
aI1
aI0
aI3
aI0
aI75
aI2
aI1
aI431
aI36
aI12
aI80
aI16
aI0
aI5
aI482
aI9
aI12
aI8
aI0
aI6
aI228
aI5
aI0
aI0
aI5
aI34
aI6
aI22
aI0
aI16
aI6
aI5
aI47
aI9
aI3
aI0
aI0
aI84
aI6
aI6
aI0
aI13
aI5
aI21
aI0
aI5
aI3
aI2
aI8
aI0
aI0
aI0
aI6
aI4
aI23
aI1
aI8
aI8
aI4
aI10
aI0
aI2
aI7
aI9
aI5
aI231
aI7
aI202
aI10
aI4
aI6
aI1
aI7
aI73
aI11
aI8
aI6
aI207
aI87
aI7
aI4
aI11
aI7
aI75
aI5
aI4
aI39
aI5
aI14
aI6
aI704
aI5
aI0
aI13
aI0
aI1
aI1
aI137
aI23
aI3
aI13
aI6
aI46
aI12
aI6
aI5
aI11
aI24
aI71
aI0
aI0
aI14
aI8
aI172
aI182
aI100
aI46
aI4
aI5
aI406
aI17
aI6
aI0
aI45
aI6
aI0
aI0
aI34
aI10
aI12
aI5
aI2
aI5
aI0
aI0
aI5
aI89
aI0
aI0
aI12
aI5
aI23
aI1
aI11
aI5
aI126
aI6
aI4
aI0
aI1
aI1
aI0
aI253
aI0
aI5
aI3
aI0
aI8
aI15
aI5
aI16
aI5
aI93
aI21
aI63
aI0
aI0
aI71
aI5
aI18
aI0
aI3
aI91
aI96
aI8
aI5
aI7
aI10
aI25
aI22
aI0
aI3
aI3
aI5
aI6
aI78
aI0
aI0
aI7
aI8
aI1
aI262
aI0
aI15
aI1
aI8
aI2
aI4
aI5
aI8
aI0
aI20
aI4
aI5
aI5
aI1
aI0
aI15
aI0
aI12
aI83
aI2
aI0
aI12
aI83
aI18
aI0
aI6
aI72
aI7
aI16
aI60
aI15
aI6
aI5
aI151
aI201
aI5
aI5
aI7
aI0
aI5
aI37
aI4
aI9
aI27
aI9
aI6
aI8
aI0
aI94
aI14
aI31
aI5
aI9
aI7
aI0
aI14
aI132
aI12
aI5
aI0
aI0
aI7
aI5
aI90
aI5
aI9
aI6
aI32
aI2
aI5
aI38
aI2
aI13
aI6
aI14
aI3
aI0
aI0
aI40
aI32
aI5
aI5
aI14
aI5
aI4
aI6
aI12
aI0
aI335
aI45
aI6
aI4
aI5
aI31
aI5
aI6
aI2
aI3
aI6
aI3
aI14
aI8
aI4
aI0
aI7
aI7
aI8
aI10
aI6
aI4
aI12
aI0
aI16
aI0
aI0
aI100
aI0
aI6
aI38
aI5
aI14
aI613
aI168
aI5
aI9
aI19
aI3
aI14
aI7
aI11
aI1
aI4
aI0
aI2
aI21
aI5
aI6
aI2
aI37
aI12
aI183
aI17
aI1
aI14
aI10
aI1
aI11
aI2
aI16
aI30
aI2
aI0
aI16
aI3
aI10
aI0
aI2
aI5
aI5
aI5
aI9
aI2
aI168
aI14
aI4
aI12
aI9
aI1
aI7
aI12
aI13
aI5
aI2
aI5
aI106
aI9
aI16
aI1
aI5
aI101
aI5
aI5
aI6
aI4
aI29
aI5
aI3
aI4
aI0
aI2
aI0
aI0
aI0
aI5
aI4
aI17
aI2
aI5
aI25
aI19
aI30
aI0
aI0
aI119
aI0
aI1
aI28
aI1
aI7
aI0
aI0
aI5
aI9
aI1
aI5
aI27
aI6
aI82
aI0
aI3
aI12
aI3
aI6
aI6
aI0
aI5
aI1
aI7
aI6
aI4
aI9
aI12
aI4
aI29
aI0
aI0
aI3
aI5
aI28
aI9
aI0
aI0
aI5
aI5
aI106
aI6
aI5
aI12
aI7
aI4
aI5
aI14
aI0
aI1
aI5
aI120
aI10
aI4
aI0
aI8
aI36
aI7
aI218
aI3
aI208
aI3
aI475
aI0
aI0
aI6
aI4
aI5
aI0
aI27
aI0
aI24
aI11
aI1
aI1
aI294
aI0
aI5
aI2
aI134
aI0
aI5
aI26
aI7
aI53
aI5
aI2
aI1
aI24
aI0
aI20
aI5
aI9
aI0
aI7
aI0
aI0
aI0
aI16
aI5
aI0
aI7
aI1
aI0
aI5
aI0
aI5
aI4
aI3
aI11
aI0
aI0
aI39
aI44
aI7
aI19
aI0
aI214
aI3
aI304
aI5
aI30
aI2
aI11
aI8
aI9
aI1
aI6
aI3
aI1
aI4
aI8
aI5
aI3
aI5
aI5
aI95
aI2
aI0
aI1
aI18
aI6
aI0
aI23
aI0
aI0
aI5
aI201
aI40
aI5
aI35
aI5
aI219
aI245
aI8
aI7
aI0
aI8
aI30
aI0
aI7
aI0
aI11
aI10
aI5
aI23
aI1
aI1
aI7
aI23
aI5
aI6
aI0
aI0
aI14
aI25
aI35
aI0
aI68
aI19
aI11
aI5
aI28
aI32
aI0
aI6
aI22
aI6
aI5
aI15
aI18
aI6
aI7
aI10
aI7
aI6
aI50
aI0
aI0
aI13
aI12
aI9
aI17
aI194
aI7
aI16
aI5
aI70
aI123
aI42
aI43
aI7
aI4
aI9
aI22
aI0
aI13
aI26
aI0
aI7
aI7
aI6
aI5
aI5
aI6
aI0
aI24
aI6
aI4
aI8
aI191
aI12
aI10
aI6
aI1
aI29
aI11
aI0
aI22
aI8
aI5
aI438
aI39
aI7
aI0
aI11
aI13
aI5
aI0
aI5
aI11
aI0
aI8
aI20
aI11
aI13
aI0
aI4
aI31
aI0
aI53
aI5
aI5
aI43
aI0
aI13
aI13
aI8
aI2
aI5
aI19
aI6
aI6
aI0
aI7
aI49
aI3
aI1
aI21
aI1
aI8
aI9
aI5
aI0
aI21
aI6
aI7
aI0
aI1
aI9
aI1
aI0
aI0
aI3
aI0
aI12
aI66
aI27
aI9
aI5
aI0
aI9
aI7
aI12
aI5
aI8
aI5
aI3
aI2
aI1
aI0
aI27
aI0
aI0
aI0
aI6
aI0
aI2
aI8
aI1089
aI1
aI0
aI1
aI0
aI7
aI6
aI7
aI6
aI24
aI0
aI3
aI0
aI4
aI6
aI6
aI144
aI6
aI2
aI5
aI0
aI12
aI246
aI12
aI0
aI2
aI18
aI23
aI7
aI6
aI150
aI6
aI0
aI133
aI5
aI9
aI7
aI7
aI5
aI3
aI5
aI7
aI27
aI0
aI0
aI0
aI0
aI3
aI7
aI1
aI147
aI7
aI0
aI11
aI2
aI1
aI20
aI5
aI2
aI7
aI35
aI313
aI36
aI4
aI0
aI0
aI5
aI16
aI6
aI9
aI79
aI5
aI45
aI6
aI5
aI13
aI31
aI0
aI8
aI19
aI4
aI0
aI0
aI2
aI0
aI5
aI1
aI6
aI5
aI0
aI7
aI5
aI10
aI3
aI11
aI6
aI5
aI0
aI5
aI10
aI0
aI12
aI5
aI0
aI5
aI5
aI23
aI2
aI6
aI5
aI5
aI0
aI5
aI9
aI7
aI56
aI3
aI0
aI0
aI18
aI8
aI168
aI5
aI6
aI25
aI255
aI7
aI0
aI40
aI5
aI5
aI2
aI5
aI8
aI5
aI12
aI0
aI7
aI223
aI8
aI3
aI5
aI5
aI100
aI0
aI2
aI8
aI0
aI5
aI0
aI8
aI3
aI15
aI5
aI0
aI7
aI13
aI5
aI8
aI11
aI106
aI29
aI4
aI4
aI7
aI13
aI35
aI4
aI3
aI5
aI6
aI5
aI12
aI2
aI7
aI2
aI9
aI6
aI15
aI7
aI39
aI29
aI6
aI0
aI1
aI123
aI53
aI0
aI8
aI5
aI7
aI0
aI19
aI11
aI7
aI7
aI31
aI13
aI6
aI10
aI18
aI9
aI0
aI111
aI8
aI4
aI6
aI5
aI23
aI7
aI0
aI9
aI222
aI7
aI6
aI12
aI41
aI10
aI273
aI6
aI0
aI13
aI0
aI5
aI8
aI0
aI18
aI0
aI8
aI136
aI5
aI0
aI2
aI5
aI0
aI0
aI6
aI6
aI4
aI5
aI9
aI7
aI1
aI1
aI4
aI0
aI0
aI6
aI5
aI0
aI5
aI0
aI6
aI278
aI94
aI8
aI0
aI21
aI5
aI55
aI118
aI0
aI7
aI17
aI0
aI9
aI1
aI0
aI23
aI0
aI7
aI0
aI44
aI8
aI14
aI6
aI6
aI3
aI193
aI7
aI5
aI25
aI117
aI12
aI1
aI0
aI5
aI9
aI0
aI5
aI5
aI292
aI19
aI1
aI9
aI6
aI8
aI1
aI9
aI0
aI6
aI26
aI0
aI5
aI37
aI11
aI6
aI5
aI63
aI237
aI702
aI15
aI17
aI5
aI14
aI28
aI5
aI14
aI7
aI0
aI0
aI5
aI6
aI45
aI0
aI8
aI7
aI3
aI0
aI6
aI8
aI4
aI3
aI6
aI12
aI6
aI5
aI9
aI52
aI0
aI9
aI6
aI3
aI8
aI4
aI14
aI12
aI15
aI6
aI227
aI1
aI7
aI0
aI7
aI5
aI7
aI7
aI8
aI0
aI8
aI0
aI5
aI7
aI57
aI12
aI19
aI14
aI11
aI8
aI0
aI10
aI5
aI4
aI168
aI11
aI40
aI9
aI3
aI0
aI4
aI1
aI37
aI0
aI5
aI22
aI12
aI56
aI4
aI175
aI6
aI5
aI5
aI18
aI9
aI6
aI1
aI132
aI6
aI5
aI0
aI17
aI33
aI49
aI0
aI51
aI2
aI349
aI5
aI0
aI299
aI3
aI6
aI8
aI29
aI13
aI0
aI29
aI5
aI6
aI8
aI158
aI5
aI7
aI21
aI1
aI16
aI14
aI1136
aI54
aI1
aI0
aI1
aI41
aI5
aI6
aI1
aI0
aI14
aI8
aI636
aI9
aI0
aI17
aI371
aI65
aI0
aI5
aI4
aI11
aI5
aI0
aI5
aI0
aI5
aI24
aI2
aI110
aI5
aI6
aI14
aI28
aI0
aI5
aI13
aI7
aI9
aI31
aI7
aI0
aI9
aI5
aI0
aI9
aI0
aI8
aI5
aI5
aI189
aI8
aI0
aI12
aI13
aI0
aI14
aI19
aI1
aI1
aI5
aI0
aI4
aI10
aI6
aI7
aI33
aI75
aI9
aI5
aI2
aI1
aI7
aI6
aI3
aI9
aI139
aI9
aI0
aI2
aI68
aI6
aI6
aI14
aI2
aI9
aI5
aI7
aI1
aI23
aI11
aI7
aI7
aI53
aI1
aI4
aI15
aI18
aI5
aI21
aI6
aI175
aI10
aI0
aI10
aI12
aI0
aI8
aI217
aI0
aI9
aI10
aI8
aI304
aI6
aI0
aI81
aI0
aI2
aI32
aI6
aI0
aI1
aI6
aI2
aI5
aI1
aI1
aI7
aI2
aI2
aI0
aI3
aI0
aI1
aI2
aI29
aI0
aI1
aI5
aI0
aI8
aI12
aI0
aI13
aI7
aI172
aI5
aI6
aI100
aI5
aI1
aI0
aI46
aI5
aI0
aI10
aI5
aI0
aI5
aI22
aI0
aI10
aI5
aI6
aI61
aI7
aI23
aI6
aI5
aI92
aI5
aI2
aI6
aI7
aI2
aI184
aI3
aI3
aI2
aI4
aI5
aI0
aI5
aI0
aI171
aI8
aI0
aI20
aI8
aI8
aI0
aI2
aI9
aI0
aI7
aI5
aI20
aI2
aI0
aI1
aI8
aI58
aI8
aI6
aI1
aI4
aI5
aI9
aI5
aI94
aI8
aI6
aI7
aI19
aI2
aI7
aI2
aI6
aI6
aI6
aI0
aI0
aI17
aI0
aI7
aI0
aI6
aI33
aI1
aI5
aI5
aI0
aI6
aI10
aI6
aI6
aI14
aI5
aI4
aI2
aI10
aI0
aI15
aI7
aI3
aI6
aI11
aI20
aI0
aI3
aI15
aI6
aI19
aI4
aI1
aI6
aI15
aI1
aI7
aI0
aI0
aI68
aI5
aI5
aI0
aI7
aI5
aI31
aI29
aI2
aI5
aI5
aI0
aI10
aI39
aI1
aI6
aI5
aI5
aI21
aI5
aI0
aI2
aI5
aI5
aI64
aI5
aI2
aI6
aI7
aI24
aI7
aI2
aI10
aI3
aI9
aI0
aI22
aI6
aI9
aI8
aI6
aI0
aI2
aI7
aI3
aI2
aI0
aI0
aI0
aI9
aI17
aI17
aI8
aI0
aI5
aI5
aI10
aI0
aI0
aI0
aI12
aI1
aI5
aI6
aI22
aI7
aI8
aI9
aI0
aI11
aI59
aI5
aI4
aI1
aI0
aI8
aI4
aI63
aI8
aI0
aI6
aI13
aI0
aI5
aI5
aI162
aI3
aI5
aI1
aI5
aI0
aI0
aI132
aI5
aI6
aI0
aI6
aI0
aI18
aI0
aI6
aI0
aI6
aI9
aI1
aI8
aI0
aI3
aI0
aI4
aI0
aI3
aI2
aI16
aI39
aI6
aI6
aI6
aI2
aI6
aI269
aI2
aI2
aI0
aI0
aI53
aI6
aI8
aI249
aI9
aI5
aI8
aI5
aI10
aI9
aI5
aI12
aI11
aI5
aI1
aI0
aI8
aI0
aI6
aI5
aI5
aI0
aI2
aI11
aI2
aI5
aI16
aI6
aI5
aI0
aI5
aI0
aI8
aI14
aI4
aI2
aI240
aI21
aI2
aI0
aI9
aI9
aI0
aI4
aI9
aI5
aI1
aI17
aI5
aI6
aI21
aI15
aI5
aI0
aI0
aI508
aI15
aI79
aI4
aI11
aI35
aI15
aI6
aI82
aI0
aI1
aI38
aI18
aI1
aI6
aI7
aI0
aI6
aI8
aI11
aI5
aI16
aI6
aI192
aI5
aI13
aI12
aI6
aI5
aI2
aI7
aI6
aI5
aI5
aI6
aI1
aI7
aI5
aI7
aI3
aI38
aI8
aI15
aI5
aI30
aI5
aI3
aI9
aI2
aI4
aI6
aI10
aI1
aI26
aI0
aI0
aI0
aI28
aI9
aI0
aI6
aI71
aI7
aI6
aI5
aI2
aI0
aI31
aI6
aI0
aI2
aI2
aI10
aI0
aI0
aI6
aI4
aI6
aI7
aI1
aI0
aI0
aI2
aI6
aI172
aI0
aI22
aI0
aI1
aI5
aI0
aI12
aI10
aI22
aI0
aI0
aI3
aI57
aI0
aI11
aI11
aI5
aI6
aI24
aI9
aI1
aI0
aI0
aI20
aI8
aI10
aI0
aI0
aI10
aI5
aI5
aI0
aI12
aI6
aI5
aI0
aI6
aI0
aI5
aI13
aI52
aI46
aI43
aI17
aI5
aI5
aI12
aI0
aI3
aI1
aI0
aI13
aI6
aI2
aI9
aI5
aI45
aI7
aI10
aI114
aI5
aI10
aI7
aI0
aI26
aI11
aI6
aI4
aI0
aI6
aI1
aI5
aI8
aI5
aI17
aI29
aI0
aI5
aI0
aI13
aI5
aI2
aI2603
aI5
aI0
aI6
aI5
aI6
aI0
aI5
aI5
aI5
aI21
aI1
aI11
aI5
aI0
aI0
aI7
aI5
aI0
aI0
aI8
aI214
aI7
aI1
aI1
aI276
aI35
aI0
aI6
aI5
aI8
aI21
aI3
aI5
aI32
aI10
aI7
aI116
aI128
aI7
aI6
aI79
aI2
aI7
aI29
aI3
aI5
aI0
aI89
aI20
aI0
aI5
aI0
aI19
aI0
aI6
aI0
aI39
aI18
aI6
aI24
aI9
aI5
aI5
aI108
aI5
aI6
aI0
aI1
aI5
aI51
aI5
aI8
aI85
aI15
aI4
aI13
aI5
aI6
aI21
aI8
aI0
aI6
aI7
aI109
aI7
aI0
aI0
aI1
aI4
aI3
aI7
aI11
aI121
aI24
aI30
aI1
aI6
aI19
aI4
aI0
aI8
aI0
aI43
aI0
aI0
aI0
aI0
aI16
aI0
aI8
aI18
aI5
aI1
aI9
aI5
aI98
aI5
aI6
aI3
aI5
aI10
aI87
aI39
aI2
aI6
aI23
aI2
aI6
aI1
aI12
aI4
aI120
aI0
aI6
aI6
aI1
aI5
aI5
aI4
aI3
aI98
aI10
aI5
aI1
aI11
aI5
aI6
aI184
aI3
aI0
aI14
aI6
aI0
aI5
aI0
aI0
aI271
aI3
aI2
aI20
aI1
aI5
aI3
aI6
aI10
aI23
aI5
aI2
aI4
aI8
aI33
aI5
aI14
aI8
aI2
aI2
aI0
aI11
aI0
aI49
aI0
aI5
aI2
aI1
aI1
aI6
aI8
aI0
aI4
aI5
aI6
aI15
aI3
aI0
aI5
aI14
aI0
aI51
aI18
aI1
aI3
aI9
aI11
aI1096
aI2
aI3
aI5
aI9
aI13
aI5
aI20
aI21
aI7
aI30
aI8
aI13
aI11
aI40
aI56
aI26
aI4
aI6
aI3
aI0
aI10
aI9
aI31
aI0
aI5
aI5
aI4
aI63
aI1
aI7
aI22
aI1048
aI188
aI2
aI12
aI3
aI0
aI6
aI5
aI25
aI5
aI0
aI0
aI0
aI22
aI7
aI11
aI30
aI33
aI6
aI28
aI0
aI0
aI4
aI5
aI5
aI4
aI71
aI0
aI5
aI0
aI6
aI1
aI7
aI5
aI2
aI0
aI36
aI8
aI0
aI15
aI3
aI0
aI6
aI6
aI0
aI7
aI5
aI27
aI10
aI52
aI8
aI58
aI5
aI5
aI7
aI2
aI11
aI18
aI0
aI133
aI31
aI5
aI5
aI5
aI6
aI11
aI7
aI14
aI0
aI0
aI237
aI0
aI0
aI362
aI7
aI5
aI0
aI2
aI4
aI16
aI35
aI30
aI2
aI4
aI5
aI0
aI0
aI5
aI7
aI10
aI25
aI0
aI14
aI5
aI170
aI6
aI6
aI6
aI0
aI7
aI1
aI0
aI22
aI5
aI0
aI5
aI60
aI262
aI9
aI5
aI0
aI0
aI5
aI8
aI0
aI152
aI20
aI6
aI182
aI5
aI0
aI14
aI5
aI49
aI1
aI0
aI12
aI7
aI0
aI219
aI10
aI7
aI5
aI26
aI58
aI6
aI8
aI15
aI0
aI5
aI0
aI0
aI2
aI3
aI3
aI11
aI6
aI0
aI13
aI11
aI33
aI18
aI1
aI5
aI0
aI8
aI0
aI10
aI5
aI13
aI2
aI1
aI16
aI1
aI9
aI7
aI16
aI7
aI20
aI5
aI6
aI7
aI5
aI3
aI848
aI37
aI7
aI50
aI12
aI0
aI0
aI15
aI3
aI5
aI12
aI5
aI11
aI6
aI75
aI23
aI4
aI0
aI0
aI58
aI12
aI6
aI6
aI3
aI27
aI4
aI7
aI1
aI3
aI0
aI143
aI1
aI29
aI5
aI109
aI3
aI7
aI6
aI0
aI5
aI8
aI0
aI8
aI0
aI43
aI0
aI7
aI9
aI5
aI66
aI15
aI6
aI6
aI9
aI5
aI9
aI5
aI0
aI6
aI2
aI7
aI7
aI1
aI9
aI4
aI5
aI7
aI5
aI7
aI5
aI57
aI9
aI0
aI8
aI6
aI0
aI0
aI16
aI1
aI4
aI51
aI22
aI5
aI0
aI1
aI6
aI0
aI10
aI8
aI1
aI15
aI7
aI123
aI0
aI10
aI5
aI14
aI6
aI0
aI112
aI3
aI1
aI0
aI5
aI16
aI1
aI192
aI9
aI5
aI1
aI27
aI4
aI13
aI14
aI2
aI2
aI33
aI15
aI6
aI8
aI0
aI16
aI0
aI0
aI5
aI451
aI7
aI37
aI11
aI5
aI5
aI0
aI0
aI76
aI5
aI3
aI5
aI9
aI4
aI8
aI21
aI75
aI7
aI12
aI8
aI8
aI3
aI93
aI0
aI0
aI2
aI6
aI5
aI9
aI5
aI5
aI5
aI1
aI5
aI11
aI4
aI5
aI6
aI2
aI6
aI5
aI75
aI6
aI5
aI3
aI0
aI9
aI0
aI0
aI7
aI5
aI6
aI0
aI0
aI19
aI16
aI7
aI6
aI4
aI13
aI87
aI5
aI0
aI7
aI0
aI0
aI7
aI188
aI10
aI118
aI0
aI6
aI68
aI5
aI9
aI97
aI19
aI6
aI23
aI0
aI3
aI1
aI6
aI1
aI0
aI0
aI0
aI3
aI12
aI3
aI47
aI0
aI2
aI5
aI5
aI10
aI55
aI6
aI6
aI9
aI8
aI0
aI0
aI6
aI5
aI0
aI5
aI69
aI7
aI13
aI7
aI48
aI0
aI358
aI3
aI2
aI7
aI2
aI12
aI384
aI47
aI0
aI89
aI5
aI21
aI12
aI32
aI5
aI2
aI10
aI5
aI5
aI17
aI18
aI6
aI2
aI20
aI5
aI7
aI22
aI9
aI2
aI34
aI6
aI52
aI0
aI0
aI6
aI11
aI162
aI0
aI3
aI25
aI413
aI18
aI0
aI117
aI7
aI10
aI4
aI5
aI0
aI0
aI56
aI2
aI0
aI21
aI0
aI5
aI5
aI2
aI145
aI29
aI0
aI144
aI66
aI5
aI149
aI5
aI240
aI5
aI9
aI10
aI5
aI9
aI46
aI6
aI12
aI0
aI21
aI5
aI4
aI6
aI5
aI8
aI6
aI8
aI28
aI127
aI63
aI0
aI0
aI7
aI54
aI3
aI13
aI0
aI10
aI19
aI0
aI0
aI0
aI10
aI3
aI43
aI0
aI6
aI7
aI15
aI10
aI1
aI1
aI7
aI33
aI1
aI7
aI5
aI119
aI0
aI75
aI9
aI5
aI2
aI0
aI5
aI1
aI35
aI0
aI0
aI5
aI34
aI5
aI5
aI8
aI5
aI34
aI10
aI12
aI55
aI47
aI5
aI3
aI4
aI5
aI1
aI9
aI52
aI22
aI8
aI10
aI5
aI1
aI0
aI8
aI4
aI0
aI5
aI2
aI42
aI148
aI3
aI5
aI1
aI5
aI15
aI5
aI0
aI46
aI0
aI5
aI12
aI15
aI13
aI6
aI1
aI15
aI0
aI3
aI0
aI5
aI0
aI5
aI10
aI2
aI197
aI0
aI5
aI57
aI7
aI26
aI6
aI25
aI9
aI1
aI5
aI6
aI6
aI1
aI0
aI9
aI12
aI13
aI6
aI33
aI19
aI12
aI174
aI9
aI6
aI0
aI6
aI7
aI50
aI5
aI11
aI8
aI8
aI3
aI9
aI15
aI3
aI1
aI5
aI24
aI6
aI0
aI10
aI0
aI4
aI10
aI5
aI8
aI3
aI5
aI24
aI6
aI0
aI51
aI7
aI6
aI382
aI0
aI1
aI12
aI2
aI6
aI81
aI71
aI15
aI0
aI1
aI5
aI0
aI5
aI7
aI10
aI1
aI4
aI30
aI0
aI3
aI6
aI6
aI19
aI15
aI0
aI0
aI5
aI8
aI651
aI1
aI6
aI25
aI6
aI28
aI0
aI0
aI4
aI2
aI68
aI5
aI6
aI11
aI6
aI10
aI7
aI2
aI1
aI0
aI6
aI92
aI0
aI7
aI0
aI42
aI4
aI0
aI7
aI5
aI13
aI45
aI5
aI2
aI90
aI4
aI10
aI2
aI6
aI4
aI0
aI38
aI5
aI62
aI156
aI18
aI0
aI3
aI6
aI6
aI11
aI0
aI6
aI6
aI6
aI0
aI13
aI9
aI0
aI0
aI2
aI27
aI147
aI5
aI4
aI13
aI34
aI5
aI5
aI4
aI3
aI68
aI16
aI6
aI1
aI0
aI26
aI0
aI1
aI35
aI0
aI5
aI5
aI58
aI0
aI58
aI10
aI0
aI0
aI0
aI6
aI0
aI117
aI5
aI151
aI0
aI2
aI8
aI11
aI11
aI5
aI5
aI3
aI3
aI5
aI18
aI5
aI1
aI15
aI0
aI41
aI40
aI5
aI5
aI10
aI26
aI16
aI6
aI9
aI4
aI43
aI10
aI1
aI9
aI5
aI0
aI0
aI3
aI8
aI0
aI8
aI44
aI23
aI5
aI6
aI1
aI22
aI5
aI123
aI27
aI6
aI11
aI24
aI3
aI6
aI0
aI2
aI7
aI9
aI62
aI13
aI28
aI5
aI5
aI7
aI5
aI17
aI7
aI5
aI5
aI15
aI5
aI4
aI16
aI100
aI2
aI5
aI6
aI0
aI4
aI7
aI23
aI0
aI4
aI9
aI2
aI1
aI2
aI1
aI0
aI10
aI8
aI174
aI1
aI4
aI22
aI0
aI10
aI6
aI7
aI22
aI5
aI20
aI6
aI16
aI29
aI5
aI56
aI459
aI8
aI0
aI37
aI24
aI0
aI0
aI0
aI10
aI19
aI0
aI10
aI165
aI0
aI4
aI1
aI29
aI5
aI1
aI7
aI5
aI0
aI6
aI33
aI3
aI29
aI2
aI0
aI0
aI7
aI2
aI4
aI4
aI16
aI1
aI18
aI1
aI10
aI6
aI5
aI2
aI7
aI15
aI5
aI4
aI6
aI6
aI6
aI0
aI6
aI5
aI14
aI2
aI0
aI1
aI6
aI6
aI124
aI5
aI0
aI5
aI6
aI6
aI1
aI6
aI13
aI7
aI15
aI22
aI237
aI8
aI7
aI15
aI15
aI9
aI59
aI2
aI5
aI5
aI5
aI26
aI72
aI102
aI11
aI9
aI6
aI92
aI6
aI7
aI42
aI14
aI5
aI17
aI0
aI5
aI1
aI26
aI0
aI40
aI5
aI1
aI65
aI8
aI1
aI5
aI67
aI1
aI5
aI6
aI6
aI2
aI0
aI6
aI5
aI25
aI0
aI1
aI46
aI5
aI5
aI7
aI25
aI5
aI4
aI658
aI10
aI10
aI68
aI3
aI222
aI33
aI20
aI7
aI36
aI2
aI7
aI9
aI11
aI6
aI165
aI8
aI12
aI0
aI10
aI8
aI8
aI0
aI7
aI6
aI0
aI13
aI3
aI3
aI8
aI0
aI6
aI10
aI6
aI296
aI5
aI0
aI5
aI5
aI13
aI7
aI8
aI2
aI6
aI3
aI7
aI0
aI11
aI7
aI3
aI18
aI5
aI15
aI5
aI4
aI12
aI49
aI5
aI19
aI0
aI4
aI5
aI7
aI7
aI24
aI0
aI9
aI49
aI2
aI24
aI2
aI0
aI4
aI20
aI198
aI19
aI6
aI7
aI67
aI0
aI5
aI5
aI39
aI0
aI7
aI13
aI3
aI0
aI0
aI1
aI0
aI5
aI28
aI1
aI16
aI96
aI13
aI1
aI102
aI6
aI5
aI3
aI12
aI106
aI3
aI131
aI5
aI17
aI6
aI5
aI30
aI20
aI1
aI5
aI36
aI5
aI25
aI5
aI0
aI1
aI24
aI1
aI1
aI7
aI6
aI5
aI8
aI7
aI33
aI18
aI50
aI3
aI1
aI9
aI14
aI160
aI1
aI76
aI10
aI3
aI18
aI337
aI23
aI21
aI5
aI0
aI0
aI2
aI9
aI0
aI3
aI20
aI4
aI5
aI0
aI6
aI14
aI2
aI8
aI2
aI4
aI25
aI0
aI18
aI5
aI11
aI5
aI349
aI5
aI16
aI2
aI6
aI352
aI5
aI19
aI9
aI0
aI20
aI6
aI7
aI225
aI38
aI15
aI9
aI5
aI14
aI11
aI11
aI1
aI0
aI2
aI6
aI5
aI11
aI2
aI6
aI5
aI7
aI5
aI96
aI5
aI3
aI33
aI33
aI3
aI5
aI8
aI0
aI2
aI9
aI7
aI11
aI2
aI0
aI0
aI7
aI0
aI25
aI32
aI30
aI1
aI3
aI5
aI3
aI9
aI1
aI15
aI9
aI48
aI2
aI0
aI47
aI6
aI10
aI5
aI2
aI4
aI10
aI18
aI5
aI0
aI2
aI287
aI13
aI36
aI6
aI33
aI1
aI0
aI8
aI0
aI7
aI0
aI12
aI5
aI1
aI0
aI0
aI5
aI4
aI14
aI6
aI0
aI6
aI0
aI3
aI6
aI7
aI5
aI6
aI0
aI5
aI7
aI0
aI0
aI5
aI25
aI3
aI164
aI0
aI0
aI1
aI6
aI16
aI2
aI1
aI0
aI11
aI22
aI0
aI8
aI123
aI11
aI6
aI6
aI0
aI0
aI0
aI7
aI6
aI779
aI5
aI4
aI10
aI2
aI1
aI5
aI0
aI9
aI5
aI35
aI30
aI10
aI11
aI9
aI15
aI34
aI51
aI0
aI1
aI1
aI17
aI5
aI0
aI17
aI2
aI3
aI11
aI7
aI25
aI0
aI9
aI11
aI6
aI4
aI0
aI12
aI45
aI1
aI6
aI0
aI0
aI1
aI1
aI6
aI1
aI0
aI4
aI0
aI6
aI5
aI7
aI2
aI0
aI1
aI7
aI1
aI23
aI16
aI5
aI118
aI0
aI14
aI2
aI161
aI44
aI7
aI11
aI3
aI3
aI0
aI12
aI12
aI0
aI7
aI45
aI5
aI3
aI9
aI39
aI40
aI6
aI3
aI6
aI61
aI0
aI1
aI7
aI7
aI33
aI5
aI8
aI78
aI7
aI4
aI9
aI21
aI5
aI6
aI51
aI7
aI38
aI680
aI8
aI5
aI7
aI3
aI16
aI13
aI6
aI2
aI0
aI2
aI0
aI0
aI0
aI0
aI897
aI1
aI10
aI25
aI6
aI7
aI3
aI7
aI0
aI18
aI0
aI2
aI5
aI0
aI1
aI11
aI0
aI0
aI0
aI5
aI6
aI0
aI6
aI6
aI0
aI7
aI0
aI6
aI0
aI32
aI2
aI3
aI19
aI0
aI8
aI1
aI14
aI96
aI7
aI6
aI24
aI12
aI5
aI51
aI18
aI3
aI0
aI134
aI5
aI10
aI12
aI194
aI51
aI6
aI5
aI8
aI4
aI5
aI4
aI10
aI11
aI3
aI6
aI3
aI5
aI4
aI8
aI0
aI44
aI149
aI49
aI23
aI3
aI2
aI6
aI2
aI4
aI9
aI7
aI5
aI0
aI1
aI18
aI0
aI0
aI5
aI12
aI12
aI2
aI5
aI1
aI208
aI13
aI16
aI1
aI3
aI0
aI12
aI1
aI18
aI0
aI5
aI38
aI1
aI75
aI25
aI5
aI212
aI5
aI5
aI24
aI30
aI15
aI0
aI2
aI0
aI2
aI1
aI0
aI7
aI5
aI7
aI1
aI18
aI0
aI0
aI8
aI7
aI9
aI23
aI13
aI13
aI0
aI2
aI9
aI6
aI5
aI7
aI0
aI0
aI180
aI5
aI8
aI6
aI5
aI6
aI8
aI16
aI13
aI0
aI1
aI7
aI152
aI0
aI7
aI0
aI0
aI157
aI10
aI8
aI10
aI77
aI13
aI5
aI9
aI7
aI19
aI17
aI0
aI6
aI73
aI8
aI0
aI5
aI1
aI14
aI2
aI13
aI0
aI28
aI6
aI2
aI0
aI7
aI3
aI0
aI5
aI2
aI307
aI0
aI83
aI3
aI10
aI26
aI7
aI96
aI4
aI69
aI154
aI22
aI0
aI7
aI2
aI12
aI26
aI0
aI1
aI3
aI10
aI6
aI235
aI21
aI5
aI8
aI0
aI13
aI12
aI40
aI294
aI2
aI8
aI4
aI12
aI5
aI203
aI14
aI5
aI0
aI2
aI12
aI2
aI0
aI11
aI6
aI6
aI8
aI461
aI2
aI14
aI1
aI7
aI6
aI50
aI4
aI12
aI29
aI3
aI3
aI18
aI44
aI5
aI15
aI13
aI10
aI0
aI238
aI0
aI6
aI86
aI5
aI18
aI41
aI5
aI5
aI9
aI15
aI0
aI0
aI5
aI0
aI26
aI7
aI6
aI6
aI0
aI7
aI2
aI34
aI6
aI5
aI7
aI96
aI5
aI21
aI6
aI5
aI91
aI0
aI5
aI68
aI10
aI6
aI0
aI133
aI1
aI7
aI11
aI176
aI9
aI34
aI0
aI9
aI22
aI6
aI1
aI3
aI1
aI14
aI20
aI5
aI18
aI0
aI1
aI0
aI23
aI11
aI7
aI0
aI1
aI5
aI0
aI1
aI14
aI16
aI80
aI15
aI0
aI14
aI5
aI59
aI7
aI112
aI177
aI2
aI16
aI2
aI16
aI6
aI3
aI0
aI326
aI4
aI0
aI4
aI5
aI5
aI9
aI0
aI5
aI7
aI13
aI5
aI5
aI12
aI11
aI6
aI36
aI0
aI10
aI1
aI4
aI6
aI5
aI18
aI8
aI9
aI2
aI5
aI17
aI5
aI11
aI5
aI53
aI17
aI1
aI6
aI0
aI0
aI28
aI5
aI14
aI7
aI31
aI8
aI7
aI16
aI123
aI5
aI0
aI1
aI12
aI18
aI8
aI18
aI5
aI43
aI7
aI10
aI5
aI4
aI8
aI8
aI17
aI1
aI4
aI6
aI5
aI6
aI7
aI6
aI3
aI0
aI52
aI7
aI0
aI7
aI14
aI11
aI33
aI20
aI4
aI129
aI7
aI6
aI6
aI24
aI2
aI14
aI4
aI0
aI0
aI0
aI7
aI0
aI3
aI5
aI29
aI12
aI0
aI7
aI6
aI0
aI0
aI14
aI7
aI165
aI1
aI4
aI26
aI100
aI9
aI1
aI16
aI17
aI43
aI12
aI1
aI9
aI5
aI5
aI0
aI423
aI32
aI15
aI69
aI8
aI6
aI48
aI5
aI85
aI5
aI0
aI3
aI15
aI4
aI0
aI1
aI7
aI11
aI7
aI12
aI5
aI5
aI2
aI10
aI0
aI34
aI0
aI137
aI5
aI43
aI33
aI38
aI9
aI1
aI8
aI7
aI0
aI4
aI1
aI6
aI211
aI18
aI34
aI8
aI2
aI2
aI6
aI28
aI12
aI7
aI0
aI9
aI5
aI158
aI0
aI61
aI21
aI3
aI9
aI2
aI6
aI4
aI9
aI6
aI0
aI6
aI4
aI6
aI7
aI30
aI1
aI68
aI453
aI0
aI8
aI6
aI5
aI11
aI19
aI14
aI0
aI24
aI59
aI2
aI5
aI135
aI4
aI7
aI0
aI18
aI11
aI0
aI10
aI1
aI3
aI4
aI0
aI12
aI733
aI0
aI2
aI0
aI2
aI82
aI6
aI15
aI2
aI51
aI15
aI3
aI9
aI5
aI35
aI6
aI5
aI5
aI10
aI31
aI2
aI0
aI7
aI0
aI5
aI8
aI5
aI201
aI5
aI11
aI14
aI6
aI168
aI7
aI0
aI6
aI74
aI19
aI12
aI3
aI14
aI9
aI0
aI13
aI10
aI33
aI11
aI1
aI2
aI7
aI1
aI5
aI334
aI8
aI5
aI5
aI9
aI2
aI7
aI36
aI2
aI4
aI47
aI6
aI7
aI0
aI0
aI44
aI391
aI84
aI3
aI82
aI0
aI0
aI6
aI5
aI9
aI7
aI1
aI116
aI6
aI7
aI0
aI7
aI72
aI33
aI0
aI5
aI20
aI5
aI9
aI11
aI16
aI20
aI21
aI1
aI16
aI7
aI2
aI6
aI11
aI2
aI5
aI107
aI18
aI8
aI64
aI0
aI1
aI0
aI7
aI26
aI7
aI1
aI43
aI12
aI25
aI5
aI0
aI2
aI4
aI1
aI8
aI7
aI4
aI2
aI5
aI5
aI5
aI0
aI0
aI110
aI40
aI8
aI0
aI9
aI7
aI1
aI25
aI9
aI3
aI8
aI0
aI17
aI4
aI115
aI53
aI12
aI22
aI8
aI9
aI153
aI8
aI10
aI6
aI0
aI8
aI21
aI12
aI123
aI7
aI1
aI6
aI0
aI0
aI26
aI13
aI71
aI5
aI0
aI5
aI0
aI80
aI12
aI8
aI7
aI11
aI10
aI5
aI0
aI5
aI7
aI5
aI0
aI7
aI5
aI0
aI8
aI5
aI1
aI6
aI42
aI5
aI6
aI0
aI18
aI0
aI4
aI9
aI15
aI6
aI16
aI238
aI0
aI9
aI8
aI4
aI0
aI149
aI7
aI0
aI1
aI1
aI5
aI7
aI5
aI10
aI26
aI5
aI42
aI7
aI6
aI0
aI2
aI0
aI6
aI42
aI0
aI6
aI9
aI0
aI4
aI2
aI109
aI0
aI7
aI2
aI7
aI2
aI8
aI0
aI2
aI9
aI7
aI5
aI7
aI0
aI2
aI1
aI22
aI0
aI45
aI0
aI6
aI4
aI11
aI8
aI12
aI0
aI3
aI5
aI7
aI0
aI6
aI5
aI5
aI5
aI0
aI1
aI5
aI1
aI6
aI5
aI12
aI12
aI6
aI121
aI74
aI85
aI781
aI4
aI6
aI0
aI3
aI5
aI11
aI0
aI8
aI2
aI0
aI6
aI3
aI1
aI7
aI0
aI6
aI13
aI0
aI0
aI17
aI0
aI5
aI3
aI10
aI0
aI7
aI0
aI0
aI8
aI0
aI3
aI9
aI5
aI13
aI5
aI3
aI5
aI0
aI6
aI6
aI13
aI900
aI11
aI4
aI7
aI10
aI12
aI8
aI11
aI8
aI41
aI0
aI4
aI5
aI1
aI6
aI8
aI0
aI59
aI4
aI1
aI10
aI10
aI1
aI1
aI14
aI10
aI22
aI73
aI8
aI1
aI5
aI7
aI8
aI52
aI10
aI1
aI80
aI65
aI1
aI6
aI0
aI6
aI6
aI17
aI134
aI30
aI4
aI4
aI11
aI0
aI1
aI5
aI0
aI23
aI36
aI8
aI4
aI11
aI4
aI0
aI8
aI5
aI9
aI44
aI7
aI21
aI3
aI5
aI5
aI8
aI0
aI16
aI7
aI0
aI6
aI5
aI5
aI6
aI6
aI11
aI39
aI20
aI38
aI4
aI74
aI6
aI5
aI0
aI7
aI31
aI53
aI0
aI10
aI3
aI2
aI1
aI17
aI10
aI0
aI41
aI6
aI12
aI0
aI6
aI2
aI0
aI0
aI0
aI8
aI12
aI37
aI5
aI9
aI9
aI0
aI1
aI10
aI0
aI5
aI9
aI18
aI2
aI2
aI6
aI5
aI3
aI5
aI9
aI15
aI16
aI7
aI12
aI0
aI3
aI0
aI4
aI0
aI0
aI6
aI0
aI9
aI2
aI0
aI0
aI0
aI14
aI7
aI3
aI5
aI6
aI3
aI6
aI6
aI6
aI0
aI57
aI0
aI2
aI2
aI0
aI0
aI4
aI5
aI23
aI10
aI7
aI60
aI28
aI1
aI8
aI2
aI91
aI23
aI2
aI61
aI0
aI46
aI0
aI26
aI5
aI0
aI3
aI28
aI5
aI3
aI1
aI6
aI5
aI8
aI1
aI5
aI25
aI77
aI14
aI6
aI0
aI5
aI8
aI72
aI11
aI0
aI6
aI7
aI28
aI0
aI6
aI36
aI46
aI50
aI17
aI0
aI9
aI5
aI7
aI17
aI90
aI6
aI224
aI2
aI5
aI590
aI24
aI5
aI0
aI24
aI11
aI3
aI1
aI1
aI8
aI2
aI0
aI0
aI2
aI3
aI9
aI89
aI5
aI116
aI6
aI21
aI0
aI5
aI0
aI14
aI0
aI12
aI18
aI0
aI6
aI0
aI7
aI147
aI5
aI169
aI1
aI19
aI25
aI19
aI21
aI21
aI10
aI0
aI8
aI30
aI4
aI5
aI6
aI5
aI4
aI6
aI13
aI69
aI0
aI6
aI0
aI0
aI7
aI4
aI18
aI0
aI91
aI7
aI243
aI2
aI9
aI6
aI5
aI6
aI5
aI18
aI21
aI0
aI6
aI58
aI9
aI0
aI84
aI0
aI17
aI5
aI40
aI7
aI3
aI616
aI1
aI0
aI84
aI6
aI562
aI8
aI0
aI4
aI107
aI1
aI5
aI3
aI5
aI6
aI0
aI0
aI2
aI48
aI7
aI7
aI58
aI0
aI8
aI1
aI6
aI76
aI5
aI68
aI2
aI12
aI8
aI6
aI5
aI4
aI5
aI9
aI0
aI5
aI5
aI5
aI7
aI5
aI6
aI134
aI5
aI0
aI10
aI5
aI1
aI7
aI7
aI23
aI1
aI6
aI0
aI28
aI28
aI1
aI12
aI0
aI5
aI6
aI14
aI0
aI0
aI5
aI20
aI109
aI0
aI2
aI5
aI98
aI6
aI5
aI0
aI9
aI5
aI18
aI4
aI5
aI24
aI71
aI6
aI6
aI23
aI7
aI8
aI5
aI9
aI10
aI8
aI7
aI2
aI5
aI8
aI3
aI1
aI7
aI6
aI10
aI143
aI0
aI46
aI11
aI24
aI5
aI6
aI8
aI6
aI5
aI2
aI0
aI2291
aI43
aI0
aI7
aI7
aI5
aI0
aI14
aI4
aI0
aI91
aI0
aI55
aI8
aI0
aI4
aI7
aI8
aI0
aI3
aI6
aI5
aI6
aI1
aI59
aI14
aI0
aI15
aI2
aI0
aI7
aI38
aI0
aI232
aI2
aI11
aI8
aI0
aI14
aI166
aI3
aI0
aI16
aI5
aI4
aI15
aI0
aI10
aI5
aI0
aI6
aI6
aI5
aI5
aI2
aI5
aI0
aI11
aI1
aI0
aI5
aI27
aI0
aI16
aI6
aI15
aI22
aI6
aI1
aI6
aI6
aI135
aI2
aI5
aI20
aI1
aI37
aI4
aI10
aI1
aI3
aI9
aI6
aI1
aI39
aI5
aI3
aI7
aI31
aI2
aI0
aI0
aI2
aI223
aI2
aI7
aI7
aI5
aI15
aI8
aI6
aI5
aI7
aI15
aI5
aI20
aI7
aI38
aI17
aI7
aI23
aI17
aI7
aI26
aI2
aI6
aI5
aI6
aI3
aI5
aI4
aI2
aI6
aI6
aI45
aI5
aI3
aI7
aI0
aI3
aI5
aI39
aI13
aI40
aI6
aI8
aI1
aI7
aI1
aI282
aI0
aI15
aI5
aI9
aI0
aI6
aI5
aI5
aI6
aI7
aI0
aI6
aI5
aI5
aI4
aI1
aI2
aI74
aI0
aI11
aI2
aI0
aI0
aI5
aI16
aI0
aI4
aI3
aI1
aI1
aI6
aI6
aI0
aI1
aI3
aI7
aI0
aI12
aI11
aI5
aI42
aI14
aI8
aI14
aI2
aI21
aI1
aI1
aI1
aI0
aI5
aI136
aI0
aI41
aI5
aI14
aI5
aI6
aI5
aI31
aI5
aI0
aI2
aI10
aI0
aI3
aI16
aI0
aI0
aI1
aI6
aI64
aI5
aI1
aI5
aI0
aI10
aI8
aI5
aI9
aI2
aI5
aI11
aI32
aI103
aI36
aI1
aI9
aI7
aI5
aI11
aI5
aI18
aI181
aI37
aI4
aI7
aI40
aI12
aI1
aI2
aI6
aI3
aI67
aI29
aI8
aI13
aI8
aI6
aI185
aI1
aI4
aI18
aI31
aI10
aI110
aI0
aI25
aI0
aI11
aI5
aI2
aI5
aI5
aI19
aI43
aI14
aI37
aI1
aI9
aI0
aI6
aI18
aI8
aI8
aI0
aI7
aI7
aI6
aI5
aI0
aI23
aI6
aI1
aI6
aI1
aI27
aI10
aI12
aI9
aI62
aI4
aI5
aI0
aI21
aI5
aI8
aI12
aI1
aI8
aI8
aI1
aI7
aI5
aI6
aI5
aI204
aI7
aI72
aI12
aI14
aI10
aI32
aI10
aI25
aI0
aI0
aI6
aI238
aI5
aI1
aI28
aI7
aI3
aI8
aI1154
aI0
aI0
aI0
aI0
aI15
aI2
aI5
aI5
aI8
aI1
aI1
aI0
aI0
aI19
aI11
aI0
aI5
aI8
aI4
aI6
aI1
aI41
aI28
aI0
aI13
aI2
aI3
aI2
aI6
aI6
aI68
aI9
aI70
aI9
aI0
aI8
aI13
aI0
aI6
aI0
aI5
aI7
aI20
aI5
aI22
aI0
aI638
aI23
aI0
aI4
aI6
aI11
aI7
aI63
aI5
aI46
aI4
aI5
aI2
aI5
aI5
aI14
aI0
aI10
aI5
aI40
aI0
aI37
aI7
aI0
aI164
aI2
aI6
aI0
aI6
aI8
aI3
aI6
aI10
aI3
aI8
aI0
aI69
aI0
aI16
aI7
aI5
aI10
aI7
aI0
aI0
aI7
aI1
aI0
aI5
aI5
aI76
aI0
aI0
aI0
aI87
aI6
aI25
aI5
aI4
aI29
aI6
aI4
aI15
aI8
aI0
aI5
aI49
aI5
aI1
aI0
aI10
aI428
aI19
aI25
aI0
aI6
aI0
aI5
aI0
aI292
aI6
aI24
aI13
aI0
aI2
aI5
aI5
aI5
aI1
aI9
aI3
aI9
aI71
aI1
aI0
aI6
aI5
aI1
aI498
aI0
aI6
aI23
aI2
aI12
aI3
aI33
aI301
aI5
aI1
aI206
aI0
aI5
aI170
aI1
aI10
aI1
aI0
aI0
aI17
aI23
aI50
aI0
aI0
aI5
aI510
aI13
aI32
aI0
aI7
aI2
aI1
aI7
aI5
aI4
aI0
aI48
aI235
aI5
aI2
aI9
aI3
aI10
aI0
aI0
aI9
aI6
aI0
aI5
aI6
aI9
aI47
aI18
aI6
aI9
aI290
aI0
aI2
aI176
aI0
aI38
aI17
aI42
aI36
aI2
aI21
aI2
aI3
aI9
aI0
aI1
aI0
aI2
aI13
aI1
aI3
aI3
aI46
aI1
aI10
aI8
aI193
aI2
aI11
aI6
aI22
aI105
aI159
aI7
aI2
aI218
aI0
aI36
aI6
aI0
aI5
aI10
aI8
aI51
aI8
aI21
aI11
aI1
aI5
aI5
aI84
aI9
aI1
aI0
aI0
aI0
aI0
aI38
aI5
aI1313
aI32
aI8
aI17
aI5
aI0
aI9
aI3
aI1
aI25
aI5
aI7
aI1
aI0
aI21
aI13
aI43
aI1
aI0
aI247
aI75
aI30
aI6
aI8
aI5
aI5
aI6
aI21
aI5
aI12
aI185
aI4
aI40
aI0
aI6
aI2
aI8
aI1
aI19
aI15
aI6
aI4
aI7
aI7
aI8
aI5
aI390
aI0
aI16
aI8
aI5
aI6
aI0
aI6
aI7
aI50
aI0
aI6
aI11
aI95
aI90
aI5
aI0
aI5
aI12
aI5
aI1
aI9
aI7
aI36
aI8
aI249
aI111
aI8
aI66
aI10
aI5
aI12
aI30
aI10
aI191
aI0
aI149
aI4
aI5
aI1
aI13
aI9
aI6
aI1
aI14
aI34
aI53
aI10
aI6
aI0
aI10
aI95
aI8
aI5
aI5
aI51
aI14
aI61
aI179
aI69
aI0
aI7
aI3
aI5
aI1
aI141
aI7
aI0
aI13
aI0
aI43
aI5
aI0
aI19
aI0
aI6
aI5
aI9
aI0
aI0
aI0
aI0
aI26
aI7
aI2
aI17
aI5
aI6
aI7
aI3
aI0
aI14
aI5
aI7
aI20
aI37
aI7
aI52
aI4
aI306
aI473
aI14
aI187
aI53
aI7
aI46
aI31
aI6
aI6
aI0
aI13
aI0
aI5
aI42
aI0
aI4
aI0
aI32
aI10
aI0
aI5
aI8
aI0
aI5
aI7
aI0
aI0
aI1
aI7
aI7
aI9
aI5
aI52
aI4
aI0
aI13
aI0
aI8
aI0
aI0
aI8
aI90
aI189
aI1
aI36
aI0
aI3
aI4
aI20
aI0
aI5
aI2
aI0
aI0
aI6
aI14
aI0
aI5
aI26
aI5
aI17
aI8
aI6
aI5
aI0
aI5
aI9
aI2
aI3
aI87
aI6
aI0
aI0
aI521
aI11
aI13
aI66
aI6
aI0
aI0
aI2
aI22
aI63
aI0
aI0
aI3
aI44
aI0
aI3
aI0
aI84
aI7
aI1
aI5
aI11
aI4
aI0
aI12
aI4
aI7
aI0
aI6
aI2
aI102
aI52
aI16
aI4
aI7
aI2
aI12
aI6
aI11
aI5
aI9
aI34
aI5
aI19
aI0
aI0
aI9
aI7
aI6
aI10
aI14
aI5
aI34
aI66
aI0
aI710
aI1
aI3
aI0
aI15
aI1
aI20
aI15
aI5
aI1
aI0
aI6
aI43
aI43
aI279
aI6
aI6
aI6
aI5
aI712
aI6
aI22
aI0
aI0
aI56
aI0
aI5
aI1
aI0
aI76
aI9
aI7
aI28
aI5
aI6
aI1
aI42
aI7
aI0
aI6
aI0
aI2
aI45
aI5
aI13
aI20
aI0
aI13
aI6
aI6
aI5
aI15
aI2
aI5
aI0
aI13
aI17
aI15
aI293
aI1
aI15
aI6
aI0
aI6
aI22
aI21
aI19
aI0
aI2
aI42
aI12
aI10
aI0
aI3
aI21
aI8
aI12
aI416
aI2
aI5
aI1
aI6
aI5
aI22
aI5
aI5
aI2
aI5
aI16
aI8
aI5
aI1
aI15
aI7
aI5
aI23
aI0
aI0
aI13
aI0
aI4
aI17
aI11
aI5
aI2
aI6
aI9
aI0
aI5
aI9
aI0
aI0
aI0
aI5
aI14
aI4
aI12
aI1
aI5
aI6
aI103
aI7
aI6
aI6
aI0
aI27
aI1
aI14
aI6
aI1
aI15
aI2
aI14
aI11
aI91
aI16
aI25
aI2
aI4
aI7
aI3
aI22
aI309
aI0
aI6
aI59
aI3
aI6
aI18
aI5
aI6
aI6
aI9
aI0
aI0
aI12
aI0
aI0
aI14
aI0
aI6
aI115
aI1
aI5
aI25
aI8
aI9
aI2
aI5
aI2
aI0
aI0
aI7
aI14
aI0
aI0
aI10
aI5
aI5
aI5
aI17
aI0
aI14
aI19
aI1
aI8
aI94
aI6
aI5
aI6
aI0
aI0
aI3
aI43
aI5
aI6
aI0
aI1
aI6
aI22
aI8
aI8
aI59
aI0
aI11
aI0
aI0
aI13
aI6
aI7
aI12
aI0
aI6
aI0
aI3
aI206
aI16
aI8
aI5
aI5
aI2
aI8
aI7
aI16
aI0
aI5
aI2
aI7
aI2
aI29
aI2
aI1
aI22
aI10
aI15
aI4
aI10
aI5
aI5
aI9
aI0
aI1
aI0
aI6
aI3
aI213
aI27
aI0
aI0
aI9
aI5
aI2
aI5
aI19
aI251
aI39
aI7
aI33
aI8
aI8
aI3
aI1
aI28
aI4
aI178
aI8
aI0
aI77
aI5
aI34
aI3
aI5
aI2
aI8
aI0
aI6
aI2
aI7
aI0
aI8
aI298
aI6
aI0
aI7
aI28
aI5
aI0
aI72
aI10
aI7
aI5
aI10
aI0
aI5
aI0
aI6
aI2
aI6
aI0
aI52
aI68
aI2
aI8
aI2
aI228
aI5
aI0
aI6
aI7
aI22
aI60
aI28
aI8
aI21
aI15
aI20
aI8
aI0
aI0
aI122
aI3
aI0
aI8
aI0
aI25
aI5
aI7
aI0
aI5
aI0
aI7
aI6
aI5
aI20
aI5
aI1
aI11
aI13
aI100
aI1
aI2
aI7
aI0
aI1
aI0
aI3
aI12
aI2
aI26
aI5
aI47
aI14
aI11
aI2
aI4
aI9
aI6
aI1
aI5
aI14
aI0
aI15
aI41
aI5
aI0
aI12
aI0
aI5
aI0
aI7
aI0
aI0
aI6
aI0
aI7
aI5
aI0
aI0
aI2
aI56
aI1
aI6
aI5
aI23
aI8
aI0
aI0
aI320
aI0
aI5
aI11
aI66
aI13
aI8
aI0
aI4
aI7
aI412
aI1
aI2
aI9
aI5
aI4
aI90
aI19
aI228
aI13
aI42
aI0
aI0
aI7
aI22
aI95
aI287
aI11
aI5
aI0
aI8
aI1
aI93
aI1
aI1
aI161
aI33
aI45
aI7
aI5
aI11
aI0
aI0
aI37
aI5
aI0
aI5
aI5
aI1
aI11
aI55
aI6
aI51
aI5
aI12
aI156
aI5
aI0
aI5
aI5
aI57
aI1
aI104
aI8
aI0
aI5
aI5
aI5
aI371
aI37
aI1
aI21
aI3
aI1236
aI6
aI0
aI4
aI2
aI0
aI5
aI0
aI47
aI5
aI1
aI7
aI8
aI20
aI32
aI183
aI7
aI0
aI1
aI0
aI27
aI6
aI4
aI29
aI8
aI6
aI9
aI19
aI4
aI4
aI5
aI1
aI2
aI0
aI288
aI0
aI21
aI6
aI5
aI140
aI5
aI38
aI5
aI3
aI7
aI13
aI11
aI4
aI7
aI7
aI5
aI2
aI6
aI1
aI4
aI9
aI0
aI0
aI11
aI0
aI0
aI2
aI5
aI0
aI5
aI5
aI27
aI1
aI0
aI4
aI0
aI80
aI30
aI0
aI8
aI5
aI5
aI0
aI0
aI4
aI5
aI252
aI8
aI6
aI5
aI4
aI5
aI6
aI5
aI0
aI6
aI15
aI5
aI0
aI5
aI5
aI0
aI14
aI5
aI115
aI0
aI0
aI52
aI0
aI7
aI5
aI27
aI5
aI8
aI8
aI0
aI6
aI99
aI1
aI18
aI11
aI20
aI3
aI6
aI5
aI578
aI6
aI0
aI9
aI206
aI6
aI3
aI1
aI8
aI5
aI5
aI7
aI10
aI71
aI172
aI18
aI27
aI5
aI101
aI0
aI10
aI7
aI1
aI7
aI4
aI0
aI35
aI2
aI130
aI6
aI9
aI11
aI5
aI7
aI8
aI12
aI0
aI625
aI5
aI1
aI4
aI8
aI5
aI7
aI5
aI0
aI6
aI3
aI5
aI0
aI3
aI10
aI134
aI140
aI7
aI26
aI0
aI67
aI8
aI0
aI0
aI6
aI1
aI2
aI55
aI0
aI78
aI24
aI0
aI5
aI71
aI0
aI105
aI0
aI10
aI6
aI5
aI1
aI26
aI0
aI18
aI2
aI6
aI6
aI10
aI6
aI16
aI2
aI3
aI6
aI26
aI5
aI8
aI1
aI38
aI7
aI0
aI8
aI6
aI19
aI6
aI2
aI15
aI1
aI0
aI10
aI6
aI0
aI3
aI0
aI58
aI222
aI3
aI1
aI5
aI0
aI5
aI2
aI148
aI5
aI1
aI13
aI64
aI8
aI2
aI8
aI0
aI48
aI2
aI55
aI0
aI62
aI13
aI9
aI1
aI16
aI0
aI0
aI93
aI3
aI48
aI5
aI5
aI10
aI6
aI3
aI3
aI1
aI5
aI0
aI52
aI4
aI5
aI2
aI8
aI61
aI2
aI89
aI134
aI0
aI5
aI6
aI27
aI6
aI6
aI85
aI0
aI57
aI5
aI1
aI0
aI194
aI6
aI6
aI56
aI5
aI13
aI5
aI7
aI5
aI2
aI7
aI7
aI73
aI5
aI8
aI1
aI14
aI19
aI0
aI19
aI5
aI6
aI9
aI2
aI0
aI1
aI6
aI5
aI6
aI17
aI16
aI6
aI6
aI0
aI4
aI4
aI4
aI5
aI0
aI41
aI43
aI0
aI5
aI5
aI13
aI5
aI38
aI0
aI5
aI0
aI12
aI62
aI2
aI2
aI166
aI7
aI5
aI30
aI5
aI0
aI0
aI0
aI13
aI1
aI8
aI6
aI3
aI5
aI10
aI0
aI60
aI26
aI2
aI25
aI12
aI36
aI1
aI5
aI22
aI0
aI9
aI11
aI8
aI5
aI209
aI7
aI1
aI8
aI90
aI10
aI1
aI27
aI7
aI142
aI0
aI3
aI1
aI5
aI14
aI9
aI12
aI8
aI7
aI2
aI5
aI0
aI6
aI1
aI5
aI6
aI0
aI6
aI22
aI3
aI138
aI0
aI7
aI37
aI5
aI5
aI1
aI67
aI7
aI7
aI155
aI9
aI2
aI0
aI5
aI0
aI9
aI2
aI3
aI0
aI23
aI3
aI5
aI16
aI53
aI1
aI35
aI5
aI26
aI1
aI4
aI0
aI1
aI41
aI0
aI40
aI143
aI5
aI7
aI24
aI0
aI0
aI0
aI6
aI6
aI1
aI2
aI5
aI6
aI1
aI583
aI79
aI10
aI4
aI442
aI7
aI73
aI26
aI4
aI13
aI4
aI7
aI4
aI1
aI7
aI20
aI7
aI0
aI4
aI17
aI1
aI3
aI5
aI1
aI27
aI7
aI0
aI52
aI10
aI0
aI5
aI2
aI5
aI5
aI3
aI12
aI0
aI9
aI5
aI0
aI8
aI1
aI28
aI11
aI2
aI8
aI0
aI6
aI0
aI447
aI149
aI9
aI1
aI448
aI83
aI2
aI5
aI241
aI5
aI0
aI27
aI5
aI7
aI20
aI5
aI667
aI3
aI7
aI3
aI5
aI19
aI24
aI1
aI608
aI0
aI3
aI7
aI18
aI3
aI38
aI0
aI46
aI45
aI44
aI11
aI0
aI7
aI9
aI31
aI3
aI8
aI14
aI0
aI3
aI11
aI2
aI0
aI77
aI5
aI2
aI2
aI7
aI0
aI6
aI8
aI12
aI28
aI9
aI5
aI2
aI1
aI2
aI12
aI109
aI20
aI5
aI19
aI522
aI13
aI0
aI711
aI100
aI5
aI2
aI0
aI9
aI118
aI31
aI1
aI3
aI2
aI31
aI1
aI0
aI4
aI11
aI5
aI0
aI123
aI0
aI24
aI5
aI32
aI26
aI0
aI3
aI5
aI14
aI60
aI18
aI11
aI7
aI6
aI7
aI11
aI3
aI17
aI4
aI2
aI11
aI7
aI0
aI56
aI0
aI0
aI3
aI13
aI5
aI2843
aI7
aI0
aI6
aI0
aI29
aI24
aI14
aI13
aI13
aI5
aI1
aI9
aI5
aI130
aI3
aI17
aI472
aI0
aI7
aI0
aI66
aI5
aI5
aI0
aI1
aI0
aI5
aI0
aI6
aI5
aI14
aI1
aI23
aI22
aI14
aI5
aI9
aI5
aI0
aI584
aI33
aI1
aI0
aI7
aI18
aI0
aI10
aI7
aI5
aI22
aI6
aI0
aI3
aI0
aI12
aI2
aI0
aI3
aI5
aI1
aI5
aI0
aI0
aI24
aI40
aI4
aI79
aI5
aI12
aI5
aI0
aI5
aI0
aI138
aI7
aI7
aI7
aI10
aI9
aI0
aI0
aI0
aI10
aI7
aI0
aI15
aI1
aI6
aI5
aI1
aI0
aI1
aI7
aI26
aI3
aI17
aI8
aI0
aI0
aI8
aI127
aI7
aI3
aI4
aI5
aI5
aI6
aI0
aI14
aI6
aI0
aI0
aI3
aI0
aI5
aI7
aI0
aI7
aI14
aI0
aI8
aI4
aI7
aI8
aI2
aI7
aI6
aI1
aI6
aI49
aI0
aI19
aI5
aI6
aI10
aI2
aI0
aI10
aI81
aI4
aI0
aI0
aI20
aI66
aI5
aI0
aI0
aI12
aI0
aI7
aI5
aI4
aI8
aI5
aI147
aI6
aI9
aI7
aI5
aI1
aI7
aI6
aI0
aI5
aI14
aI0
aI29
aI40
aI11
aI1
aI3
aI10
aI5
aI0
aI0
aI5
aI4
aI6
aI5
aI4
aI45
aI16
aI4
aI5
aI23
aI11
aI9
aI106
aI6
aI3
aI1
aI4
aI6
aI7
aI20
aI600
aI5
aI4
aI3
aI5
aI159
aI0
aI6
aI13
aI43
aI2
aI7
aI52
aI54
aI0
aI3
aI9
aI16
aI6
aI5
aI0
aI6
aI17
aI9
aI3
aI3
aI3
aI19
aI7
aI20
aI5
aI16
aI29
aI5
aI6
aI8
aI2
aI0
aI208
aI4
aI12
aI6
aI5
aI62
aI5
aI0
aI1
aI2
aI0
aI0
aI9
aI4
aI5
aI5
aI0
aI2
aI0
aI9
aI8
aI1
aI2
aI16
aI5
aI5
aI178
aI0
aI1
aI5
aI54
aI2
aI9
aI3
aI0
aI6
aI0
aI10
aI0
aI5
aI0
aI12
aI1413
aI0
aI8
aI20
aI47
aI10
aI3
aI10
aI0
aI6
aI7
aI9
aI8
aI4
aI117
aI173
aI19
aI1
aI0
aI3
aI0
aI5
aI6
aI11
aI15
aI11
aI5
aI5
aI4
aI14
aI62
aI5
aI7
aI1
aI5
aI39
aI0
aI1
aI5
aI0
aI55
aI5
aI22
aI5
aI0
aI5
aI12
aI5
aI198
aI13
aI13
aI6
aI1
aI14
aI5
aI0
aI0
aI30
aI6
aI4
aI1
aI0
aI2
aI0
aI16
aI5
aI7
aI9
aI5
aI4
aI1
aI3
aI0
aI6
aI15
aI7
aI0
aI30
aI18
aI7
aI1
aI5
aI8
aI196
aI8
aI12
aI4
aI12
aI0
aI42
aI7
aI29
aI23
aI0
aI6
aI9
aI4
aI5
aI5
aI23
aI16
aI0
aI8
aI331
aI24
aI6
aI0
aI0
aI5
aI5
aI47
aI1
aI24
aI18
aI26
aI6
aI0
aI12
aI12
aI10
aI9
aI1
aI149
aI6
aI47
aI194
aI64
aI10
aI0
aI6
aI0
aI5
aI8
aI3
aI6
aI0
aI8
aI11
aI7
aI37
aI3
aI5
aI10
aI18
aI8
aI7
aI0
aI9
aI12
aI13
aI92
aI28
aI2
aI23
aI150
aI0
aI5
aI449
aI12
aI6
aI1
aI20
aI7
aI5
aI9
aI6
aI172
aI65
aI42
aI15
aI36
aI14
aI7
aI0
aI38
aI1
aI5
aI6
aI2
aI11
aI29
aI5
aI20
aI8
aI2
aI14
aI42
aI0
aI1
aI13
aI7
aI6
aI11
aI17
aI12
aI24
aI5
aI17
aI6
aI21
aI28
aI0
aI14
aI7
aI1
aI2
aI0
aI33
aI16
aI5
aI7
aI0
aI5
aI67
aI7
aI227
aI64
aI8
aI22
aI5
aI26
aI1
aI9
aI37
aI102
aI38
aI105
aI25
aI23
aI8
aI6
aI0
aI4
aI22
aI3
aI11
aI6
aI0
aI0
aI34
aI5
aI36
aI6
aI13
aI75
aI4
aI6
aI22
aI88
aI2
aI7
aI54
aI153
aI11
aI14
aI5
aI1
aI2
aI27
aI6
aI4
aI4
aI0
aI5
aI5
aI4
aI8
aI3
aI5
aI4
aI33
aI26
aI3
aI8
aI5
aI0
aI15
aI9
aI17
aI4
aI6
aI3
aI3
aI1
aI9
aI17
aI5
aI17
aI0
aI6
aI0
aI5
aI6
aI6
aI0
aI5
aI6
aI0
aI5
aI5
aI20
aI18
aI76
aI8
aI4
aI1
aI0
aI61
aI7
aI143
aI0
aI7
aI44
aI7
aI17
aI78
aI5
aI5
aI1
aI5
aI7
aI6
aI1
aI6
aI19
aI18
aI7
aI9
aI3
aI1
aI9
aI32
aI5
aI0
aI16
aI1
aI15
aI7
aI252
aI8
aI5
aI0
aI6
aI19
aI0
aI6
aI5
aI8
aI0
aI12
aI3
aI17
aI13
aI6
aI5
aI7
aI5
aI5
aI6
aI6
aI5
aI3
aI0
aI131
aI6
aI11
aI438
aI6
aI3
aI9
aI9
aI5
aI0
aI0
aI5
aI5
aI5
aI6
aI5
aI1
aI15
aI29
aI2
aI2
aI7
aI7
aI1
aI0
aI11
aI16
aI8
aI14
aI11
aI5
aI21
aI1
aI5
aI3
aI0
aI21
aI16
aI5
aI7
aI11
aI4
aI100
aI11
aI5
aI849
aI8
aI2
aI407
aI3
aI20
aI90
aI2
aI0
aI0
aI8
aI7
aI9
aI5
aI20
aI12
aI0
aI0
aI2
aI526
aI564
aI8
aI2
aI12
aI79
aI696
aI13
aI5
aI9
aI0
aI20
aI5
aI5
aI22
aI7
aI8
aI18
aI0
aI1
aI2
aI25
aI4
aI20
aI0
aI150
aI7
aI20
aI6
aI14
aI2
aI1
aI77
aI58
aI2
aI0
aI0
aI6
aI3
aI34
aI7
aI9
aI5
aI8
aI3
aI0
aI9
aI6
aI111
aI15
aI6
aI18
aI22
aI4
aI0
aI0
aI7
aI18
aI29
aI6
aI23
aI1
aI0
aI7
aI1
aI5
aI6
aI0
aI189
aI9
aI2
aI2
aI4
aI15
aI2
aI10
aI0
aI12
aI0
aI8
aI18
aI8
aI5
aI151
aI11
aI5
aI1
aI3
aI55
aI1
aI3
aI19
aI12
aI22
aI6
aI2
aI9
aI1
aI5
aI10
aI70
aI23
aI11
aI1
aI39
aI48
aI6
aI0
aI17
aI32
aI10
aI6
aI2
aI1
aI5
aI0
aI0
aI4
aI8
aI14
aI7
aI5
aI13
aI8
aI1
aI77
aI7
aI1
aI0
aI4
aI1
aI0
aI0
aI0
aI0
aI0
aI9
aI5
aI13
aI3
aI0
aI895
aI5
aI5
aI7
aI21
aI0
aI40
aI6
aI240
aI5
aI0
aI10
aI2
aI5
aI23
aI6
aI28
aI6
aI12
aI10
aI0
aI5
aI2
aI0
aI10
aI0
aI10
aI25
aI3
aI6
aI12
aI0
aI1
aI0
aI7
aI0
aI8
aI0
aI7
aI31
aI5
aI0
aI7
aI9
aI0
aI10
aI0
aI5
aI5
aI10
aI0
aI9
aI5
aI0
aI115
aI0
aI317
aI0
aI6
aI6
aI17
aI7
aI50
aI15
aI0
aI9
aI12
aI5
aI4
aI29
aI2
aI6
aI2
aI42
aI3
aI115
aI7
aI3
aI0
aI18
aI12
aI6
aI5
aI17
aI9
aI0
aI37
aI0
aI0
aI3
aI6
aI8
aI0
aI0
aI5
aI6
aI8
aI0
aI0
aI6
aI3
aI65
aI9
aI27
aI12
aI0
aI5
aI7
aI0
aI4
aI1
aI24
aI5
aI37
aI6
aI11
aI6
aI7
aI7
aI7
aI5
aI5
aI108
aI5
aI1
aI6
aI2
aI5
aI18
aI35
aI0
aI1
aI0
aI6
aI76
aI5
aI1
aI6
aI0
aI31
aI1
aI19
aI7
aI31
aI9
aI6
aI33
aI17
aI1
aI8
aI0
aI4
aI27
aI0
aI8
aI1
aI1
aI0
aI2
aI2
aI47
aI15
aI6
aI5
aI9
aI4
aI18
aI1
aI0
aI6
aI1
aI6
aI6
aI5
aI30
aI0
aI238
aI0
aI0
aI20
aI470
aI31
aI1
aI5
aI12
aI57
aI0
aI9
aI13
aI6
aI5
aI0
aI7
aI5
aI9
aI11
aI1
aI2
aI29
aI5
aI5
aI0
aI5
aI6
aI16
aI379
aI0
aI5
aI5
aI2
aI2
aI3
aI5
aI2
aI8
aI72
aI45
aI5
aI7
aI6
aI4
aI10
aI2
aI8
aI0
aI7
aI6
aI1
aI8
aI6
aI0
aI10
aI11
aI53
aI1
aI5
aI0
aI8
aI25
aI100
aI4
aI28
aI8
aI12
aI4
aI0
aI0
aI176
aI1
aI0
aI1
aI2
aI7
aI1
aI337
aI8
aI8
aI5
aI6
aI4
aI1
aI0
aI1
aI62
aI11
aI14
aI4
aI8
aI7
aI15
aI6
aI17
aI7
aI5
aI0
aI17
aI53
aI0
aI0
aI0
aI56
aI31
aI0
aI0
aI441
aI29
aI87
aI5
aI0
aI5
aI1
aI0
aI0
aI6
aI3
aI5
aI5
aI5
aI2
aI34
aI0
aI8
aI7
aI6
aI3
aI9
aI115
aI6
aI0
aI2
aI5
aI101
aI6
aI1
aI0
aI0
aI0
aI15
aI2
aI5
aI126
aI6
aI4
aI0
aI108
aI32
aI5
aI27
aI6
aI28
aI16
aI5
aI1
aI8
aI5
aI5
aI0
aI46
aI14
aI38
aI20
aI30
aI10
aI5
aI5
aI1
aI8
aI0
aI0
aI41
aI5
aI1
aI49
aI5
aI0
aI5
aI187
aI5
aI7
aI13
aI12
aI19
aI11
aI7
aI0
aI5
aI5
aI15
aI371
aI0
aI16
aI0
aI6
aI9
aI2
aI5
aI66
aI3
aI8
aI8
aI6
aI14
aI10
aI0
aI15
aI267
aI0
aI5
aI7
aI7
aI2
aI388
aI9
aI0
aI194
aI0
aI0
aI7
aI160
aI0
aI14
aI6
aI0
aI6
aI14
aI9
aI5
aI5
aI3
aI22
aI5
aI7
aI12
aI6
aI5
aI0
aI6
aI5
aI5
aI0
aI7
aI0
aI5
aI7
aI42
aI5
aI9
aI76
aI12
aI0
aI5
aI21
aI6
aI52
aI5
aI12
aI6
aI7
aI8
aI53
aI177
aI6
aI6
aI7
aI0
aI2
aI7
aI2
aI7
aI115
aI7
aI28
aI9
aI6
aI4
aI7
aI64
aI255
aI14
aI5
aI13
aI0
aI10
aI5
aI10
aI0
aI22
aI7
aI7
aI5
aI1
aI0
aI0
aI46
aI14
aI6
aI16
aI2
aI5
aI18
aI0
aI0
aI39
aI21
aI0
aI4
aI0
aI34
aI6
aI9
aI8
aI5
aI5
aI0
aI0
aI8
aI174
aI2
aI11
aI12
aI5
aI5
aI32
aI5
aI5
aI28
aI3
aI1
aI22
aI4
aI33
aI1
aI6
aI12
aI2
aI9
aI6
aI5
aI3
aI6
aI121
aI160
aI33
aI0
aI0
aI0
aI2
aI8
aI9
aI290
aI9
aI45
aI0
aI6
aI5
aI0
aI0
aI41
aI11
aI4
aI17
aI5
aI6
aI9
aI6
aI40
aI30
aI46
aI20
aI2
aI6
aI102
aI14
aI1
aI5
aI1
aI0
aI2
aI18
aI325
aI5
aI1
aI5
aI37
aI0
aI224
aI18
aI8
aI17
aI15
aI49
aI6
aI0
aI3
aI164
aI5
aI0
aI12
aI2272
aI13
aI0
aI0
aI1
aI5
aI9
aI824
aI7
aI2
aI40
aI3
aI6
aI20
aI3
aI0
aI5
aI6
aI3
aI23
aI8
aI8
aI82
aI2
aI8
aI5
aI19
aI8
aI6
aI9
aI435
aI8
aI8
aI4
aI6
aI11
aI896
aI34
aI0
aI3
aI6
aI0
aI8
aI2
aI537
aI1
aI12
aI86
aI1
aI0
aI5
aI2
aI6
aI3
aI0
aI85
aI5
aI10
aI34
aI176
aI5
aI13
aI7
aI5
aI5
aI8
aI12
aI6
aI0
aI10
aI0
aI7
aI9
aI13
aI9
aI0
aI0
aI16
aI5
aI4
aI5
aI5
aI9
aI129
aI27
aI8
aI5
aI7
aI6
aI95
aI5
aI0
aI11
aI7
aI6
aI0
aI5
aI12
aI33
aI1
aI24
aI428
aI4
aI40
aI1
aI6
aI33
aI0
aI7
aI5
aI6
aI2
aI0
aI0
aI4
aI1
aI38
aI7
aI6
aI8
aI0
aI115
aI14
aI0
aI6
aI9
aI0
aI12
aI1
aI7
aI28
aI16
aI0
aI0
aI6
aI7
aI2
aI10
aI9
aI9
aI6
aI6
aI5
aI0
aI7
aI5
aI0
aI5
aI35
aI2
aI0
aI13
aI5
aI8
aI6
aI61
aI0
aI6
aI5
aI5
aI5
aI27
aI5
aI0
aI63
aI5
aI5
aI5
aI0
aI0
aI0
aI41
aI12
aI5
aI6
aI124
aI6
aI10
aI0
aI0
aI36
aI0
aI0
aI31
aI9
aI11
aI1
aI29
aI16
aI0
aI5
aI3
aI7
aI5
aI5
aI5
aI10
aI6
aI9
aI7
aI6
aI3
aI4
aI17
aI0
aI5
aI8
aI13
aI5
aI5
aI0
aI5
aI47
aI11
aI83
aI0
aI6
aI5
aI110
aI24
aI6
aI40
aI14
aI7
aI87
aI4
aI6
aI43
aI412
aI6
aI5
aI362
aI2
aI92
aI0
aI71
aI5
aI1
aI1
aI31
aI30
aI32
aI10
aI10
aI0
aI0
aI37
aI9
aI18
aI6
aI101
aI11
aI0
aI6
aI3
aI13
aI0
aI8
aI8
aI0
aI8
aI0
aI14
aI1
aI6
aI2
aI7
aI19
aI2
aI24
aI21
aI5
aI44
aI6
aI0
aI2
aI76
aI0
aI16
aI0
aI5
aI1
aI3
aI4
aI0
aI5
aI6
aI28
aI75
aI0
aI0
aI0
aI0
aI6
aI4
aI6
aI24
aI0
aI13
aI6
aI5
aI0
aI23
aI5
aI5
aI1
aI8
aI1
aI46
aI3820
aI9
aI9
aI41
aI186
aI21
aI1
aI3
aI5
aI1
aI4
aI7
aI1
aI40
aI0
aI5
aI5
aI53
aI6
aI7
aI0
aI74
aI0
aI0
aI6
aI10
aI14
aI8
aI7
aI16
aI0
aI28
aI42
aI389
aI11
aI23
aI0
aI7
aI36
aI7
aI95
aI7
aI4
aI38
aI1
aI1
aI81
aI0
aI0
aI0
aI10
aI5
aI0
aI6
aI55
aI0
aI12
aI8
aI5
aI45
aI37
aI0
aI79
aI5
aI5
aI6
aI5
aI7
aI2
aI10
aI12
aI6
aI8
aI6
aI1
aI26
aI8
aI8
aI5
aI3
aI7
aI2
aI4
aI0
aI0
aI3
aI7
aI35
aI5
aI7
aI174
aI590
aI5
aI1
aI6
aI6
aI0
aI17
aI0
aI0
aI7
aI19
aI0
aI46
aI5
aI26
aI5
aI8
aI0
aI7
aI6
aI7
aI2
aI1
aI5
aI0
aI2
aI1
aI46
aI4
aI2
aI13
aI11
aI8
aI5
aI58
aI5
aI11
aI5
aI1
aI0
aI5
aI1
aI9
aI9
aI2
aI5
aI6
aI1
aI72
aI6
aI22
aI17
aI16
aI7
aI12
aI172
aI219
aI5
aI4
aI43
aI39
aI3
aI0
aI18
aI231
aI6
aI22
aI7
aI5
aI11
aI1
aI0
aI10
aI1
aI5
aI33
aI0
aI11
aI1
aI39
aI10
aI2
aI0
aI0
aI1
aI0
aI6
aI13
aI1
aI8
aI3
aI5
aI5
aI8
aI17
aI35
aI7
aI21
aI11
aI5
aI8
aI0
aI7
aI37
aI12
aI6
aI8
aI12
aI0
aI5
aI5
aI8
aI4
aI24
aI5
aI1
aI7
aI0
aI11
aI6
aI0
aI151
aI6
aI0
aI0
aI13
aI5
aI5
aI0
aI7
aI43
aI3
aI5
aI5
aI6
aI1
aI15
aI75
aI0
aI6
aI0
aI5
aI6
aI8
aI8
aI10
aI3
aI49
aI31
aI52
aI7
aI22
aI12
aI51
aI1
aI0
aI9
aI1
aI73
aI6
aI7
aI7
aI4
aI13
aI0
aI20
aI47
aI6
aI5
aI1
aI3
aI4
aI0
aI8
aI5
aI129
aI0
aI12
aI1
aI14
aI4
aI6
aI3
aI0
aI1
aI0
aI4
aI5
aI3
aI9
aI6
aI5
aI39
aI18
aI55
aI13
aI1
aI39
aI313
aI13
aI0
aI8
aI12
aI15
aI13
aI0
aI8
aI11
aI0
aI4
aI8
aI6
aI5
aI5
aI4
aI0
aI5
aI13
aI6
aI62
aI0
aI0
aI9
aI0
aI14
aI1
aI2
aI31
aI10
aI19
aI6
aI6
aI10
aI0
aI3
aI2
aI0
aI5
aI7
aI1
aI3
aI0
aI96
aI6
aI3
aI5
aI8
aI65
aI6
aI0
aI2
aI2
aI138
aI5
aI6
aI7
aI9
aI6
aI1
aI10
aI2
aI66
aI5
aI6
aI5
aI5
aI181
aI5
aI148
aI0
aI10
aI5
aI0
aI6
aI5
aI10
aI1
aI2
aI25
aI3
aI9
aI36
aI2
aI7
aI97
aI3
aI8
aI5
aI8
aI8
aI7
aI2
aI54
aI123
aI0
aI0
aI16
aI1
aI89
aI7
aI15
aI308
aI15
aI6
aI214
aI8
aI115
aI5
aI9
aI60
aI6
aI0
aI19
aI5
aI0
aI5
aI7
aI0
aI1
aI0
aI46
aI0
aI0
aI8
aI5
aI13
aI39
aI19
aI5
aI5
aI6
aI33
aI10
aI0
aI14
aI29
aI1
aI4
aI0
aI0
aI18
aI6
aI1
aI13
aI0
aI6
aI19
aI18
aI8
aI2
aI1
aI5
aI0
aI7
aI0
aI2
aI20
aI9
aI2
aI3
aI35
aI7
aI2
aI0
aI3
aI303
aI33
aI5
aI39
aI2
aI13
aI7
aI18
aI40
aI2
aI3
aI54
aI0
aI4
aI6
aI56
aI0
aI3
aI32
aI7
aI8
aI0
aI0
aI94
aI12
aI7
aI38
aI21
aI7
aI5
aI2
aI9
aI3
aI4
aI0
aI5
aI14
aI0
aI90
aI19
aI0
aI17
aI0
aI52
aI0
aI41
aI9
aI9
aI417
aI5
aI10
aI5
aI12
aI2
aI5
aI0
aI7
aI0
aI5
aI181
aI0
aI8
aI5
aI1
aI5
aI6
aI46
aI0
aI5
aI13
aI1
aI6
aI5
aI1
aI3
aI13
aI0
aI317
aI22
aI3
aI15
aI80
aI5
aI9
aI10
aI57
aI214
aI12
aI5
aI1
aI0
aI0
aI6
aI0
aI14
aI6
aI6
aI32
aI39
aI2
aI5
aI5
aI5
aI8
aI4
aI0
aI0
aI12
aI3
aI9
aI5
aI0
aI41
aI7
aI243
aI17
aI9
aI0
aI32
aI8
aI0
aI6
aI5
aI89
aI22
aI4
aI0
aI0
aI7
aI4
aI8
aI8
aI1
aI25
aI11
aI5
aI6
aI1
aI9
aI4
aI6
aI0
aI7
aI13
aI8
aI35
aI625
aI4
aI6
aI112
aI23
aI2
aI3
aI10
aI11
aI15
aI0
aI18
aI8
aI2
aI27
aI24
aI12
aI5
aI117
aI2
aI0
aI1
aI0
aI53
aI11
aI27
aI6
aI3
aI6
aI33
aI45
aI7
aI5
aI0
aI8
aI3
aI2
aI5
aI15
aI5
aI0
aI8
aI74
aI10
aI9
aI8
aI0
aI35
aI251
aI7
aI6
aI0
aI5
aI4
aI16
aI8
aI518
aI6
aI0
aI2
aI2
aI0
aI2
aI0
aI0
aI34
aI11
aI9
aI102
aI5
aI2
aI5
aI8
aI7
aI15
aI8
aI1
aI5
aI8
aI5
aI1
aI28
aI20
aI8
aI10
aI5
aI189
aI0
aI1
aI0
aI9
aI6
aI5
aI8
aI4
aI1
aI6
aI47
aI0
aI29
aI0
aI2
aI2
aI3
aI317
aI3
aI28
aI332
aI11
aI1
aI55
aI0
aI7
aI4
aI4
aI30
aI7
aI5
aI29
aI5
aI2
aI5
aI1
aI12
aI0
aI5
aI0
aI0
aI0
aI7
aI0
aI7
aI0
aI0
aI0
aI8
aI2
aI0
aI0
aI5
aI0
aI0
aI11
aI70
aI1
aI6
aI4
aI0
aI2
aI2
aI7
aI5
aI9
aI0
aI6
aI191
aI2
aI5
aI5
aI18
aI1
aI5
aI11
aI3
aI46
aI5
aI2
aI6
aI8
aI2
aI5
aI4
aI9
aI0
aI98
aI3
aI7
aI56
aI7
aI0
aI0
aI5
aI1
aI5
aI6
aI0
aI4
aI506
aI5
aI0
aI8
aI5
aI0
aI218
aI25
aI7
aI10
aI3
aI5
aI7
aI5
aI19
aI0
aI0
aI0
aI5
aI6
aI0
aI26
aI0
aI2
aI15
aI7
aI35
aI7
aI11
aI6
aI6
aI0
aI5
aI5
aI5
aI0
aI1
aI22
aI5
aI22
aI7
aI8
aI217
aI0
aI41
aI57
aI0
aI3
aI5
aI5
aI9
aI0
aI0
aI14
aI0
aI0
aI32
aI8
aI0
aI5
aI63
aI7
aI5
aI0
aI2
aI5
aI6
aI6
aI10
aI45
aI0
aI30
aI29
aI0
aI0
aI1
aI0
aI3
aI13
aI106
aI4
aI2
aI5
aI6
aI10
aI5
aI3
aI5
aI13
aI7
aI0
aI5
aI5
aI0
aI2
aI64
aI6
aI0
aI14
aI177
aI5
aI19
aI7
aI26
aI5
aI30
aI71
aI2
aI15
aI20
aI2
aI5
aI24
aI4
aI7
aI3
aI11
aI5
aI0
aI7
aI0
aI9
aI15
aI21
aI0
aI8
aI24
aI0
aI147
aI6
aI3
aI7
aI0
aI2
aI1
aI0
aI0
aI27
aI4
aI4
aI167
aI0
aI6
aI3
aI5
aI10
aI41
aI325
aI8
aI6
aI7
aI0
aI0
aI117
aI20
aI5
aI11
aI3
aI10
aI6
aI418
aI7
aI196
aI3
aI12
aI26
aI9
aI29
aI117
aI6
aI3
aI15
aI6
aI1
aI5
aI5
aI4
aI12
aI21
aI13
aI5
aI7
aI22
aI7
aI10
aI13
aI7
aI17
aI0
aI0
aI11
aI8
aI10
aI10
aI0
aI108
aI0
aI0
aI5
aI5
aI7
aI6
aI1
aI848
aI4
aI3
aI6
aI8
aI7
aI0
aI10
aI245
aI5
aI43
aI15
aI5
aI0
aI12
aI9
aI14
aI33
aI7
aI0
aI5
aI7
aI5
aI12
aI5
aI6
aI6
aI0
aI6
aI0
aI9
aI4
aI7
aI7
aI16
aI0
aI16
aI8
aI3
aI21
aI31
aI66
aI0
aI6
aI0
aI14
aI0
aI0
aI6
aI5
aI5
aI15
aI2
aI1
aI14
aI0
aI5
aI67
aI46
aI6
aI2
aI17
aI0
aI19
aI7
aI70
aI4
aI6
aI10
aI6
aI5
aI61
aI0
aI6
aI0
aI3
aI5
aI6
aI0
aI0
aI2
aI319
aI19
aI6
aI8
aI11
aI0
aI0
aI48
aI2
aI7
aI12
aI6
aI71
aI11
aI7
aI8
aI5
aI63
aI0
aI12
aI107
aI24
aI107
aI1
aI0
aI19
aI45
aI9
aI12
aI8
aI0
aI0
aI15
aI0
aI5
aI7
aI6
aI1
aI5
aI16
aI0
aI17
aI7
aI9
aI1
aI72
aI0
aI5
aI0
aI51
aI6
aI4
aI0
aI65
aI5
aI96
aI8
aI3
aI12
aI1
aI5
aI38
aI6
aI18
aI0
aI7
aI18
aI235
aI11
aI5
aI5
aI3
aI0
aI6
aI3
aI17
aI5
aI6
aI6
aI6
aI8
aI11
aI3
aI21
aI6
aI2
aI148
aI0
aI7
aI108
aI7
aI8
aI193
aI5
aI0
aI7
aI1
aI9
aI0
aI23
aI4
aI1
aI41
aI9
aI5
aI2
aI0
aI3
aI8
aI2
aI1
aI11
aI29
aI1
aI0
aI9
aI5
aI11
aI12
aI9
aI5
aI6
aI18
aI11
aI2
aI11
aI3
aI5
aI11
aI7
aI6
aI0
aI0
aI30
aI17
aI2
aI15
aI1
aI18
aI0
aI8
aI109
aI7
aI6
aI1
aI0
aI0
aI11
aI5
aI6
aI10
aI6
aI2
aI1
aI0
aI40
aI0
aI6
aI0
aI0
aI6
aI5
aI22
aI14
aI21
aI10
aI46
aI74
aI29
aI7
aI22
aI7
aI0
aI0
aI23
aI7
aI3
aI0
aI8
aI1
aI5
aI0
aI22
aI53
aI5
aI4
aI7
aI3
aI18
aI5
aI77
aI20
aI3
aI6
aI4
aI5
aI51
aI22
aI6
aI12
aI9
aI0
aI6
aI9
aI7
aI8
aI22
aI9
aI6
aI5
aI5
aI4
aI1
aI0
aI7
aI5
aI6
aI6
aI13
aI49
aI76
aI5
aI8
aI2
aI44
aI36
aI6
aI5
aI2
aI116
aI5
aI6
aI5
aI5
aI7
aI5
aI5
aI0
aI7
aI17
aI24
aI0
aI11
aI1
aI6
aI1
aI7
aI0
aI0
aI8
aI6
aI0
aI5
aI25
aI23
aI8
aI1
aI4
aI6
aI38
aI5
aI5
aI58
aI13
aI3
aI7
aI5
aI0
aI28
aI3
aI3
aI0
aI31
aI0
aI22
aI31
aI0
aI8
aI5
aI0
aI79
aI21
aI8
aI0
aI9
aI18
aI47
aI3
aI31
aI6
aI26
aI27
aI6
aI405
aI141
aI48
aI11
aI76
aI6
aI45
aI68
aI13
aI17
aI7
aI5
aI69
aI1
aI2
aI11
aI11
aI6
aI5
aI9
aI5
aI7
aI511
aI5
aI1
aI10
aI10
aI7
aI3
aI29
aI0
aI86
aI13
aI1
aI6
aI34
aI344
aI5
aI3
aI8
aI5
aI6
aI5
aI105
aI0
aI0
aI7
aI93
aI2
aI4
aI2
aI6
aI2
aI0
aI4
aI0
aI6
aI0
aI9
aI19
aI1
aI7
aI0
aI9
aI5
aI95
aI1
aI5
aI35
aI6
aI12
aI5
aI4
aI8
aI12
aI29
aI4
aI5
aI15
aI25
aI5
aI8
aI11
aI12
aI27
aI0
aI238
aI146
aI33
aI7
aI10
aI3
aI6
aI9
aI5
aI6
aI1
aI2
aI6
aI0
aI143
aI4
aI4
aI5
aI0
aI7
aI6
aI419
aI8
aI0
aI21
aI5
aI6
aI5
aI8
aI1
aI1
aI0
aI5
aI109
aI7
aI0
aI1
aI5
aI1
aI7
aI0
aI15
aI13
aI186
aI5
aI0
aI0
aI42
aI9
aI1
aI109
aI2
aI7
aI10
aI6
aI0
aI14
aI5
aI0
aI13
aI5
aI270
aI3
aI5
aI5
aI0
aI0
aI6
aI5
aI1
aI4
aI6
aI1
aI5
aI5
aI0
aI5
aI1
aI7
aI5
aI0
aI2
aI5
aI0
aI1
aI0
aI74
aI5
aI60
aI4
aI5
aI224
aI0
aI15
aI32
aI6
aI8
aI5
aI19
aI6
aI0
aI14
aI6
aI14
aI17
aI4
aI208
aI54
aI5
aI8
aI6
aI0
aI0
aI3
aI9
aI0
aI6
aI0
aI5
aI5
aI6
aI5
aI30
aI65
aI0
aI11
aI1
aI6
aI6
aI6
aI37
aI66
aI6
aI8
aI7
aI4
aI8
aI17
aI0
aI4
aI27
aI9
aI0
aI5
aI49
aI0
aI4
aI2
aI5
aI6
aI78
aI6
aI1
aI5
aI0
aI11
aI4
aI2
aI6
aI5
aI10
aI45
aI4
aI8
aI10
aI40
aI6
aI169
aI7
aI5
aI3
aI5
aI2
aI14
aI0
aI3
aI0
aI15
aI5
aI0
aI18
aI0
aI5
aI5
aI7
aI6
aI0
aI52
aI0
aI0
aI148
aI5
aI2
aI23
aI312
aI17
aI2
aI7
aI9
aI9
aI54
aI3
aI6
aI5
aI20
aI1
aI5
aI5
aI3
aI4
aI13
aI1
aI6
aI48
aI13
aI14
aI2
aI0
aI12
aI5
aI9
aI395
aI7
aI4
aI7
aI13
aI5
aI0
aI5
aI12
aI13
aI0
aI0
aI36
aI0
aI0
aI14
aI9
aI6
aI58
aI214
aI5
aI19
aI0
aI7
aI4
aI10
aI7
aI7
aI6
aI5
aI10
aI0
aI4
aI1
aI49
aI0
aI1
aI8
aI1
aI0
aI0
aI10
aI5
aI5
aI7
aI7
aI5
aI7
aI5
aI5
aI1
aI6
aI13
aI0
aI0
aI7
aI5
aI5
aI0
aI15
aI5
aI0
aI28
aI0
aI308
aI9
aI5
aI1
aI0
aI0
aI0
aI0
aI11
aI0
aI0
aI12
aI50
aI6
aI5
aI2
aI6
aI7
aI9
aI12
aI0
aI6
aI13
aI2
aI0
aI5
aI0
aI5
aI7
aI7
aI3
aI54
aI4
aI7
aI17
aI7
aI0
aI4
aI2
aI5
aI3
aI9
aI32
aI0
aI16
aI0
aI7
aI23
aI5
aI0
aI4
aI6
aI0
aI10
aI1
aI5
aI0
aI8
aI6
aI0
aI5
aI4
aI7
aI8
aI12
aI8
aI0
aI5
aI5
aI7
aI129
aI0
aI111
aI5
aI4
aI1209
aI18
aI4
aI9
aI7
aI3
aI6
aI8
aI75
aI183
aI5
aI22
aI6
aI9
aI7
aI5
aI5
aI5
aI6
aI7
aI9
aI20
aI18
aI6
aI12
aI4
aI35
aI5
aI2
aI0
aI7
aI8
aI21
aI0
aI0
aI6
aI7
aI7
aI0
aI0
aI5
aI9
aI7
aI16
aI2
aI0
aI17
aI2
aI112
aI5
aI7
aI2
aI6
aI171
aI160
aI7
aI83
aI0
aI11
aI146
aI8
aI7
aI13
aI4
aI33
aI6
aI0
aI0
aI5
aI5
aI0
aI7
aI5
aI5
aI4
aI0
aI0
aI5
aI7
aI3
aI5
aI71
aI19
aI0
aI5
aI1
aI9
aI1
aI7
aI24
aI2
aI2
aI4
aI33
aI11
aI5
aI5
aI6
aI18
aI4
aI8
aI7
aI11
aI5
aI5
aI29
aI0
aI6
aI185
aI0
aI37
aI10
aI6
aI5
aI17
aI3
aI8
aI9
aI5
aI5
aI13
aI5
aI20
aI73
aI6
aI3
aI6
aI5
aI22
aI17
aI5
aI32
aI1
aI21
aI0
aI5
aI5
aI8
aI7
aI14
aI13
aI0
aI9
aI2
aI9
aI6
aI5
aI0
aI7
aI6
aI37
aI7
aI25
aI21
aI6
aI7
aI13
aI2
aI0
aI7
aI100
aI5
aI120
aI7
aI11
aI29
aI127
aI9
aI0
aI4
aI15
aI5
aI4
aI6
aI9
aI17
aI51
aI6
aI6
aI59
aI10
aI5
aI9
aI6
aI7
aI8
aI8
aI5
aI31
aI129
aI0
aI0
aI21
aI0
aI0
aI2
aI0
aI9
aI0
aI5
aI5
aI5
aI28
aI8
aI9
aI6
aI0
aI9
aI5
aI5
aI0
aI84
aI8
aI4
aI6
aI0
aI19
aI0
aI5
aI3
aI5
aI6
aI5
aI1
aI19
aI5
aI4
aI1
aI2
aI16
aI5
aI0
aI9
aI25
aI9
aI10
aI58
aI7
aI7
aI5
aI5
aI6
aI0
aI55
aI6
aI6
aI74
aI0
aI51
aI9
aI5
aI5
aI2
aI10
aI10
aI27
aI21
aI9
aI5
aI7
aI5
aI0
aI8
aI3
aI0
aI20
aI6
aI18
aI5
aI0
aI1
aI24
aI4
aI24
aI0
aI5
aI7
aI34
aI10
aI10
aI44
aI5
aI18
aI4
aI5
aI7
aI0
aI2
aI2
aI151
aI6
aI3
aI0
aI0
aI2
aI44
aI2
aI10
aI0
aI9
aI138
aI18
aI12
aI35
aI218
aI33
aI10
aI0
aI14
aI189
aI0
aI0
aI0
aI0
aI1
aI77
aI3
aI15
aI186
aI7
aI3
aI23
aI14
aI71
aI19
aI17
aI10
aI0
aI15
aI39
aI0
aI1
aI6
aI1
aI12
aI0
aI11
aI7
aI0
aI6
aI51
aI96
aI1
aI0
aI62
aI0
aI0
aI0
aI7
aI0
aI0
aI4
aI5
aI0
aI31
aI2
aI0
aI16
aI8
aI0
aI6
aI13
aI6
aI7
aI12
aI8
aI0
aI0
aI3
aI1
aI502
aI7
aI0
aI0
aI3
aI6
aI2
aI5
aI5
aI1001
aI11
aI70
aI0
aI5
aI0
aI129
aI7
aI13
aI7
aI22
aI6
aI1
aI0
aI18
aI44
aI29
aI24
aI35
aI29
aI38
aI6
aI22
aI11
aI3
aI0
aI9
aI6
aI6
aI7
aI5
aI99
aI136
aI70
aI5
aI10
aI5
aI0
aI16
aI5
aI33
aI626
aI4
aI8
aI4
aI5
aI0
aI0
aI0
aI51
aI1
aI0
aI5
aI11
aI5
aI52
aI36
aI5
aI13
aI0
aI5
aI6
aI5
aI7
aI10
aI5
aI6
aI1
aI6
aI11
aI5
aI11
aI9
aI24
aI337
aI80
aI28
aI0
aI1
aI8
aI1
aI7
aI0
aI5
aI0
aI48
aI10
aI5
aI14
aI12
aI1
aI0
aI7
aI5
aI3
aI6
aI4
aI0
aI0
aI0
aI10
aI0
aI6
aI25
aI68
aI483
aI8
aI0
aI0
aI2
aI8
aI6
aI0
aI8
aI5
aI1
aI6
aI2
aI28
aI6
aI5
aI8
aI2
aI0
aI5
aI21
aI34
aI0
aI5
aI183
aI3
aI30
aI22
aI0
aI1
aI309
aI1
aI2
aI19
aI6
aI8
aI67
aI6
aI6
aI6
aI2
aI26
aI9
aI16
aI5
aI42
aI1
aI0
aI5
aI5
aI13
aI0
aI85
aI5
aI4
aI0
aI72
aI77
aI15
aI1
aI0
aI5
aI0
aI7
aI5
aI5
aI3
aI18
aI7
aI16
aI0
aI2
aI0
aI5
aI3
aI22
aI7
aI14
aI6
aI5
aI5
aI5
aI5
aI19
aI18
aI20
aI16
aI64
aI0
aI0
aI49
aI21
aI0
aI0
aI9
aI6
aI11
aI9
aI0
aI3
aI11
aI0
aI11
aI15
aI8
aI6
aI5
aI5
aI9
aI35
aI0
aI3
aI29
aI51
aI2
aI2
aI9
aI12
aI1
aI38
aI5
aI19
aI5
aI30
aI1
aI5
aI6
aI61
aI7
aI7
aI2
aI0
aI0
aI12
aI6
aI25
aI4
aI6
aI21
aI12
aI0
aI73
aI5
aI5
aI58
aI8
aI0
aI5
aI374
aI6
aI5
aI44
aI7
aI52
aI5
aI50
aI27
aI5
aI7
aI4
aI25
aI136
aI73
aI6
aI5
aI41
aI3
aI12
aI131
aI0
aI14
aI140
aI5
aI377
aI4
aI0
aI1
aI5
aI11
aI11
aI73
aI0
aI56
aI5
aI0
aI2
aI0
aI7
aI0
aI28
aI22
aI11
aI1
aI0
aI6
aI7
aI8
aI16
aI37
aI2
aI18
aI0
aI6
aI9
aI4
aI15
aI8
aI303
aI14
aI55
aI1
aI8
aI5
aI5
aI2
aI2
aI20
aI5
aI7
aI7
aI8
aI6
aI6
aI8
aI21
aI36
aI6
aI13
aI7
aI0
aI0
aI9
aI6
aI9
aI20
aI8
aI0
aI0
aI126
aI5
aI28
aI0
aI1
aI0
aI37
aI2
aI7
aI5
aI8
aI5
aI11
aI0
aI2
aI78
aI10
aI5
aI8
aI4
aI21
aI5
aI6
aI3
aI7
aI64
aI1
aI17
aI0
aI7
aI10
aI6
aI39
aI0
aI11
aI7
aI11
aI22
aI16
aI12
aI21
aI5
aI83
aI7
aI6
aI11
aI5
aI0
aI1
aI3
aI6
aI0
aI8
aI53
aI16
aI63
aI5
aI0
aI2
aI5
aI5
aI25
aI13
aI0
aI0
aI0
aI6
aI0
aI1
aI0
aI7
aI0
aI6
aI2
aI0
aI6
aI5
aI5
aI3
aI0
aI5
aI6
aI5
aI0
aI62
aI23
aI5
aI14
aI39
aI29
aI2
aI10
aI3
aI5
aI0
aI5
aI0
aI95
aI4
aI5
aI0
aI136
aI0
aI0
aI6
aI0
aI7
aI59
aI7
aI7
aI1
aI79
aI74
aI1
aI0
aI1
aI8
aI7
aI17
aI1
aI5
aI27
aI33
aI6
aI178
aI71
aI5
aI10
aI5
aI49
aI3
aI10
aI2
aI103
aI3
aI9
aI5
aI7
aI0
aI99
aI6
aI0
aI1
aI21
aI9
aI100
aI47
aI2
aI7
aI6
aI0
aI8
aI10
aI0
aI1
aI6
aI4
aI8
aI2
aI0
aI0
aI0
aI4
aI10
aI99
aI7
aI19
aI0
aI425
aI100
aI8
aI35
aI33
aI40
aI2
aI5
aI5
aI5
aI6
aI5
aI2
aI7
aI4
aI0
aI0
aI5
aI2
aI4
aI0
aI6
aI127
aI4
aI7
aI7
aI4
aI0
aI255
aI0
aI3
aI2
aI14
aI0
aI0
aI6
aI8
aI0
aI16
aI8
aI2
aI14
aI5
aI6
aI5
aI1
aI44
aI0
aI0
aI8
aI15
aI0
aI5
aI0
aI0
aI7
aI3
aI20
aI42
aI5
aI5
aI25
aI33
aI3
aI9
aI7
aI2
aI0
aI40
aI2
aI35
aI190
aI1
aI5
aI7
aI0
aI5
aI2
aI0
aI8
aI63
aI2
aI13
aI85
aI5
aI216
aI0
aI0
aI99
aI34
aI26
aI9
aI6
aI6
aI0
aI6
aI4
aI0
aI7
aI7
aI6
aI2
aI0
aI12
aI63
aI2
aI26
aI2
aI0
aI2
aI47
aI7
aI6
aI6
aI12
aI9
aI0
aI6
aI93
aI5
aI1
aI6
aI0
aI6
aI4
aI2
aI0
aI13
aI7
aI4
aI0
aI5
aI0
aI103
aI9
aI3
aI8
aI2
aI6
aI0
aI0
aI4
aI7
aI7
aI10
aI3
aI587
aI6
aI68
aI29
aI3
aI10
aI5
aI6
aI7
aI114
aI5
aI8
aI6
aI0
aI6
aI32
aI0
aI6
aI22
aI5
aI5
aI140
aI14
aI155
aI80
aI0
aI9
aI4
aI3
aI11
aI0
aI100
aI8
aI8
aI6
aI13
aI5
aI32
aI9
aI17
aI2
aI6
aI10
aI7
aI156
aI7
aI8
aI5
aI14
aI12
aI2
aI6
aI10
aI0
aI56
aI15
aI12
aI5
aI2
aI6
aI11
aI130
aI5
aI4
aI6
aI0
aI9
aI4
aI5
aI0
aI7
aI8
aI8
aI0
aI0
aI5
aI9
aI6
aI7
aI0
aI7
aI1
aI10
aI5
aI93
aI8
aI10
aI11
aI12
aI9
aI6
aI7
aI5
aI1
aI0
aI6
aI65
aI6
aI0
aI5
aI5
aI0
aI2
aI7
aI6
aI5
aI27
aI10
aI0
aI50
aI25
aI0
aI7
aI19
aI8
aI5
aI1
aI7
aI2
aI33
aI7
aI0
aI62
aI2
aI5
aI18
aI2
aI14
aI145
aI7
aI25
aI6
aI1
aI0
aI1
aI94
aI0
aI8
aI99
aI0
aI0
aI9
aI8
aI1
aI4
aI6
aI15
aI37
aI5
aI29
aI0
aI22
aI6
aI5
aI7
aI20
aI58
aI52
aI480
aI15
aI2
aI9
aI8
aI6
aI0
aI0
aI5
aI5
aI0
aI40
aI38
aI23
aI5
aI5
aI0
aI8
aI13
aI5
aI10
aI0
aI21
aI44
aI39
aI0
aI1
aI90
aI3
aI5
aI5
aI1
aI35
aI5
aI1639
aI6
aI0
aI5
aI24
aI1
aI7
aI0
aI0
aI5
aI0
aI18
aI0
aI5
aI10
aI0
aI2
aI1
aI0
aI4
aI0
aI6
aI7
aI89
aI0
aI7
aI9
aI37
aI9
aI5
aI6
aI5
aI132
aI5
aI6
aI0
aI11
aI5
aI24
aI0
aI0
aI62
aI11
aI26
aI0
aI3
aI140
aI2
aI6
aI3
aI9
aI11
aI52
aI7
aI4
aI8
aI14
aI87
aI5
aI684
aI0
aI1
aI4
aI7
aI7
aI172
aI1
aI16
aI5
aI0
aI0
aI7
aI57
aI5
aI5
aI6
aI73
aI5
aI0
aI5
aI0
aI16
aI12
aI5
aI7
aI5
aI6
aI15
aI8
aI7
aI3
aI5
aI1
aI4
aI20
aI0
aI6
aI70
aI2
aI6
aI0
aI5
aI8
aI12
aI108
aI5
aI4
aI2
aI0
aI0
aI4
aI0
aI7
aI74
aI0
aI1
aI0
aI6
aI6
aI1
aI1
aI2
aI3
aI15
aI17
aI6
aI7
aI18
aI8
aI0
aI2
aI19
aI5
aI31
aI4
aI0
aI0
aI36
aI5
aI62
aI10
aI5
aI17
aI2
aI0
aI5
aI21
aI8
aI76
aI6
aI8
aI435
aI7
aI21
aI6
aI13
aI0
aI53
aI1
aI33
aI0
aI41
aI7
aI4
aI29
aI0
aI1
aI19
aI34
aI5
aI7
aI5
aI9
aI8
aI6
aI10
aI36
aI7
aI64
aI0
aI5
aI17
aI2345
aI5
aI0
aI1
aI8
aI6
aI0
aI4
aI5
aI8
aI6
aI1
aI6
aI10
aI87
aI0
aI5
aI3
aI5
aI5
aI31
aI0
aI8
aI7
aI15
aI113
aI6
aI0
aI2
aI0
aI11
aI6
aI371
aI13
aI6
aI1
aI1
aI6
aI9
aI1
aI13
aI0
aI6
aI29
aI5
aI10
aI0
aI16
aI8
aI8
aI0
aI7
aI16
aI0
aI29
aI2
aI0
aI7
aI5
aI1
aI2
aI8
aI6
aI8
aI7
aI9
aI4
aI5
aI12
aI11
aI8
aI30
aI19
aI6
aI7
aI5
aI8
aI7
aI3
aI6
aI17
aI0
aI6
aI0
aI1
aI9
aI2
aI11
aI117
aI6
aI0
aI5
aI9
aI52
aI2
aI7
aI6
aI0
aI7
aI0
aI6
aI14
aI37
aI1
aI57
aI10
aI5
aI8
aI26
aI9
aI0
aI7
aI26
aI10
aI0
aI15
aI2
aI6
aI9
aI2
aI10
aI176
aI0
aI13
aI1
aI2
aI9
aI8
aI5
aI2
aI8
aI7
aI11
aI0
aI5
aI9
aI0
aI34
aI0
aI0
aI0
aI108
aI0
aI0
aI5
aI6
aI5
aI195
aI1
aI6
aI6
aI7
aI10
aI133
aI6
aI6
aI2
aI283
aI13
aI10
aI6
aI0
aI6
aI13
aI0
aI9
aI30
aI4
aI13
aI10
aI315
aI1
aI7
aI178
aI5
aI2
aI1
aI5
aI0
aI8
aI5
aI3
aI0
aI0
aI5
aI55
aI6
aI72
aI6
aI1
aI0
aI12
aI0
aI3
aI5
aI9
aI76
aI7
aI6
aI6
aI5
aI6
aI11
aI1
aI3
aI5
aI5
aI7
aI6
aI1
aI7
aI5
aI33
aI1
aI11
aI13
aI0
aI9
aI52
aI6
aI0
aI0
aI7
aI26
aI1
aI104
aI20
aI348
aI9
aI6
aI2
aI4
aI12
aI57
aI4
aI6
aI10
aI0
aI10
aI35
aI6
aI68
aI5
aI2
aI29
aI8
aI5
aI8
aI7
aI5
aI6
aI0
aI0
aI15
aI11
aI2
aI6
aI51
aI3
aI7
aI7
aI11
aI3
aI3
aI1
aI15
aI4
aI7
aI5
aI0
aI11
aI95
aI24
aI31
aI16
aI6
aI0
aI7
aI3
aI8
aI28
aI10
aI5
aI9
aI1
aI194
aI11
aI0
aI7
aI9
aI0
aI6
aI69
aI1
aI13
aI10
aI3
aI0
aI1
aI4
aI1
aI3
aI0
aI0
aI79
aI6
aI13
aI39
aI8
aI1
aI18
aI123
aI0
aI3
aI6
aI6
aI29
aI3
aI0
aI2
aI7
aI5
aI0
aI3
aI2
aI5
aI2
aI5
aI1
aI2
aI7
aI24
aI0
aI6
aI2
aI12
aI0
aI151
aI37
aI137
aI8
aI34
aI8
aI0
aI22
aI5
aI0
aI0
aI6
aI2
aI0
aI0
aI9
aI11
aI0
aI10
aI27
aI29
aI5
aI31
aI17
aI1
aI7
aI1
aI0
aI5
aI4
aI27
aI12
aI28
aI0
aI1
aI25
aI0
aI2
aI6
aI5
aI5
aI5
aI0
aI0
aI19
aI0
aI21
aI11
aI64
aI0
aI9
aI0
aI72
aI5
aI6
aI29
aI10
aI0
aI3
aI9
aI0
aI26
aI1
aI14
aI6
aI0
aI0
aI63
aI7
aI0
aI6
aI0
aI7
aI85
aI0
aI0
aI6
aI5
aI4
aI23
aI10
aI5
aI8
aI0
aI0
aI4
aI7
aI22
aI38
aI4
aI5
aI30
aI5
aI5
aI7
aI12
aI5
aI5
aI0
aI72
aI18
aI20
aI10
aI8
aI31
aI6
aI4
aI3
aI2
aI18
aI5
aI172
aI0
aI15
aI4
aI0
aI0
aI1
aI2
aI6
aI6
aI22
aI5
aI73
aI7
aI5
aI19
aI24
aI9
aI8
aI27
aI1
aI6
aI5
aI0
aI6
aI11
aI0
aI96
aI7
aI1
aI5
aI25
aI5
aI0
aI5
aI6
aI5
aI8
aI97
aI5
aI12
aI7
aI6
aI15
aI0
aI86
aI35
aI6
aI26
aI0
aI112
aI5
aI8
aI1
aI4
aI10
aI5
aI0
aI3
aI10
aI2
aI5
aI0
aI0
aI6
aI5
aI207
aI0
aI2
aI43
aI7
aI7
aI12
aI5
aI151
aI16
aI5
aI0
aI17
aI29
aI8
aI5
aI23
aI0
aI5
aI42
aI4
aI1
aI12
aI5
aI5
aI0
aI4
aI2
aI0
aI0
aI2
aI5
aI6
aI13
aI6
aI0
aI34
aI2
aI0
aI5
aI5
aI7
aI0
aI8
aI17
aI1
aI4
aI1
aI17
aI5
aI155
aI2
aI10
aI0
aI0
aI0
aI6
aI128
aI7
aI6
aI1
aI12
aI234
aI8
aI13
aI225
aI2
aI3
aI51
aI28
aI11
aI5
aI9
aI6
aI3
aI2
aI12
aI20
aI0
aI5
aI3
aI36
aI4
aI10
aI10
aI5
aI51
aI12
aI0
aI16
aI11
aI3
aI3
aI21
aI13
aI7
aI2
aI4
aI0
aI8
aI0
aI342
aI219
aI1
aI6
aI0
aI0
aI4
aI8
aI5
aI3
aI5
aI8
aI1
aI19
aI5
aI3
aI6
aI17
aI8
aI13
aI11
aI12
aI3
aI0
aI75
aI12
aI13
aI5
aI14
aI41
aI0
aI0
aI0
aI9
aI10
aI6
aI24
aI11
aI5
aI4
aI2
aI1
aI2
aI9
aI9
aI16
aI15
aI24
aI9
aI6
aI9
aI0
aI7
aI6
aI0
aI0
aI0
aI6
aI6
aI5
aI232
aI24
aI5
aI0
aI10
aI5
aI9
aI1
aI7
aI7
aI27
aI11
aI22
aI11
aI12
aI0
aI41
aI6
aI271
aI3
aI8
aI35
aI11
aI0
aI0
aI0
aI17
aI7
aI0
aI0
aI8
aI89
aI32
aI7
aI0
aI1
aI25
aI0
aI13
aI5
aI2
aI52
aI3
aI9
aI5
aI5
aI0
aI8
aI122
aI1
aI1
aI1
aI7
aI2
aI8
aI7
aI1
aI0
aI7
aI8
aI5
aI53
aI0
aI30
aI17
aI0
aI5
aI22
aI10
aI11
aI0
aI2
aI15
aI37
aI283
aI0
aI41
aI0
aI5
aI7
aI6
aI445
aI3
aI10
aI9
aI0
aI2
aI42
aI3
aI7
aI0
aI7
aI10
aI147
aI0
aI27
aI0
aI30
aI8
aI0
aI4
aI0
aI20
aI68
aI0
aI10
aI10
aI0
aI11
aI0
aI6
aI13
aI6
aI29
aI1
aI0
aI1
aI3
aI5
aI6
aI1
aI5
aI128
aI2
aI171
aI5
aI69
aI0
aI6
aI22
aI53
aI19
aI6
aI5
aI125
aI7
aI0
aI8
aI5
aI3
aI18
aI44
aI28
aI162
aI1
aI0
aI8
aI0
aI2
aI26
aI22
aI6
aI0
aI7
aI463
aI10
aI39
aI7
aI4
aI6
aI541
aI7
aI134
aI8
aI7
aI9
aI9
aI13
aI8
aI9
aI93
aI7
aI0
aI12
aI2
aI1
aI210
aI5
aI0
aI6
aI6
aI28
aI0
aI13
aI3
aI0
aI10
aI15
aI3
aI14
aI3
aI13
aI14
aI10
aI1
aI92
aI11
aI4
aI5
aI5
aI9
aI7
aI1
aI4
aI5
aI7
aI9
aI4
aI175
aI0
aI0
aI6
aI36
aI44
aI0
aI1124
aI157
aI5
aI10
aI7
aI0
aI6
aI2
aI166
aI2
aI64
aI10
aI0
aI4
aI0
aI20
aI0
aI12
aI13
aI0
aI5
aI10
aI39
aI21
aI2
aI0
aI77
aI17
aI7
aI8
aI28
aI0
aI43
aI9
aI0
aI6
aI0
aI2
aI4
aI5
aI32
aI0
aI9
aI2
aI6
aI1
aI6
aI6
aI7
aI972
aI19
aI5
aI17
aI140
aI128
aI0
aI6
aI0
aI8
aI55
aI0
aI18
aI0
aI18
aI1
aI0
aI2
aI44
aI5
aI4
aI5
aI0
aI0
aI18
aI2
aI5
aI5
aI6
aI0
aI1
aI6
aI5
aI35
aI5
aI0
aI6
aI9
aI61
aI92
aI2
aI50
aI5
aI0
aI6
aI5
aI4
aI16
aI12
aI69
aI10
aI11
aI11
aI10
aI9
aI98
aI83
aI5
aI6
aI14
aI5
aI4
aI2
aI6
aI0
aI24
aI6
aI5
aI18
aI2
aI4
aI0
aI0
aI55
aI6
aI6
aI6
aI9
aI0
aI70
aI5
aI12
aI5
aI20
aI2
aI5
aI1
aI5
aI76
aI4
aI6
aI6
aI0
aI18
aI2
aI9
aI45
aI0
aI128
aI0
aI5
aI7
aI5
aI13
aI7
aI64
aI5
aI3
aI4
aI30
aI1
aI0
aI9
aI6
aI167
aI0
aI6
aI28
aI7
aI45
aI5
aI7
aI2
aI10
aI7
aI3
aI7
aI4
aI0
aI5
aI9
aI6
aI25
aI0
aI0
aI6
aI9
aI6
aI7
aI5
aI29
aI8
aI0
aI7
aI10
aI7
aI0
aI80
aI15
aI122
aI0
aI6
aI11
aI1
aI6
aI33
aI0
aI0
aI9
aI14
aI42
aI3
aI13
aI6
aI0
aI10
aI3
aI31
aI13
aI0
aI5
aI5
aI0
aI0
aI989
aI5
aI1
aI36
aI15
aI12
aI6
aI1
aI123
aI0
aI1
aI8
aI7
aI27
aI6
aI8
aI43
aI7
aI1
aI0
aI0
aI2
aI2
aI2
aI5
aI4
aI7
aI0
aI0
aI17
aI16
aI1
aI1
aI5
aI28
aI9
aI5
aI26
aI21
aI187
aI21
aI0
aI0
aI65
aI0
aI7
aI0
aI21
aI1
aI0
aI48
aI7
aI34
aI5
aI5
aI7
aI5
aI0
aI33
aI20
aI1
aI5
aI8
aI0
aI0
aI12
aI4
aI0
aI26
aI0
aI10
aI0
aI5
aI10
aI2
aI0
aI5
aI1
aI7
aI115
aI39
aI0
aI0
aI99
aI95
aI11
aI0
aI5
aI5
aI47
aI5
aI6
aI0
aI5
aI5
aI7
aI3
aI0
aI16
aI0
aI4
aI12
aI7
aI5
aI4
aI0
aI7
aI3
aI25
aI6
aI10
aI35
aI7
aI35
aI0
aI8
aI77
aI5
aI0
aI3
aI27
aI8
aI0
aI69
aI5
aI1
aI167
aI6
aI7
aI7
aI6
aI2
aI5
aI45
aI5
aI7
aI9
aI25
aI4
aI0
aI0
aI6
aI0
aI25
aI0
aI0
aI0
aI5
aI18
aI19
aI12
aI108
aI35
aI0
aI8
aI6
aI20
aI10
aI19
aI104
aI6
aI16
aI7
aI412
aI6
aI9
aI5
aI126
aI6
aI32
aI1
aI7
aI0
aI5
aI8
aI5
aI6
aI10
aI0
aI0
aI0
aI30
aI11
aI1
aI1
aI1
aI79
aI0
aI25
aI5
aI0
aI18
aI5
aI4
aI3
aI20
aI0
aI27
aI0
aI0
aI6
aI5
aI30
aI0
aI202
aI15
aI4
aI0
aI75
aI6
aI6
aI8
aI40
aI5
aI0
aI7
aI0
aI4
aI16
aI5
aI18
aI0
aI0
aI5
aI1
aI5
aI0
aI2
aI8
aI91
aI4
aI1
aI4
aI46
aI1
aI0
aI0
aI6
aI240
aI5
aI0
aI13
aI18
aI3
aI0
aI5
aI1
aI0
aI7
aI0
aI8
aI4
aI3
aI58
aI18
aI5
aI29
aI40
aI138
aI0
aI6
aI546
aI1
aI0
aI0
aI5
aI60
aI2
aI5
aI9
aI5
aI30
aI0
aI4
aI3
aI0
aI9
aI44
aI4
aI8
aI1
aI5
aI2
aI5
aI0
aI4
aI8
aI4
aI1
aI0
aI0
aI0
aI4
aI2
aI3
aI6
aI0
aI7
aI53
aI10
aI7
aI57
aI0
aI5
aI1
aI5
aI7
aI54
aI1
aI10
aI15
aI11
aI3
aI17
aI5
aI3
aI7
aI0
aI5
aI8
aI5
aI0
aI2
aI7
aI10
aI0
aI207
aI6
aI9
aI2
aI97
aI2
aI0
aI44
aI6
aI10
aI17
aI5
aI10
aI0
aI111
aI11
aI2
aI50
aI7
aI11
aI4
aI5
aI0
aI10
aI14
aI6
aI5
aI0
aI19
aI3
aI7
aI20
aI2
aI5
aI10
aI15
aI11
aI6
aI23
aI6
aI6
aI37
aI5
aI7
aI7
aI3
aI0
aI17
aI126
aI7
aI67
aI8
aI1
aI6
aI9
aI2
aI3
aI10
aI0
aI8
aI3
aI2
aI5
aI12
aI12
aI8
aI0
aI4
aI51
aI0
aI6
aI0
aI7
aI14
aI20
aI4
aI12
aI2
aI5
aI5
aI5
aI21
aI8
aI6
aI7
aI75
aI17
aI30
aI0
aI7
aI1
aI15
aI5
aI7
aI6
aI32
aI29
aI6
aI25
aI1
aI5
aI0
aI3
aI5
aI9
aI128
aI0
aI5
aI2
aI13
aI7
aI16
aI5
aI6
aI2
aI0
aI10
aI4
aI5
aI8
aI5
aI1
aI3
aI2
aI7
aI1
aI17
aI4
aI0
aI5
aI4
aI5
aI5
aI7
aI65
aI0
aI0
aI8
aI4
aI28
aI6
aI11
aI0
aI9
aI0
aI87
aI0
aI5
aI22
aI10
aI19
aI134
aI8
aI11
aI21
aI21
aI11
aI7
aI0
aI7
aI6
aI83
aI1
aI5
aI2
aI7
aI0
aI25
aI8
aI1
aI5
aI0
aI0
aI6
aI22
aI0
aI209
aI118
aI0
aI1
aI5
aI3
aI0
aI10
aI7
aI6
aI9
aI5
aI1
aI11
aI7
aI5
aI6
aI7
aI19
aI6
aI6
aI7
aI3
aI4
aI33
aI1
aI113
aI6
aI7
aI4
aI17
aI84
aI19
aI8
aI2
aI5
aI5
aI11
aI216
aI5
aI5
aI0
aI78
aI7
aI1
aI0
aI6
aI0
aI6
aI5
aI9
aI37
aI0
aI68
aI12
aI21
aI56
aI5
aI5
aI2
aI0
aI8
aI10
aI0
aI3
aI6
aI4
aI4
aI5
aI3
aI6
aI7
aI14
aI134
aI41
aI9
aI47
aI11
aI6
aI15
aI8
aI7
aI0
aI1
aI1
aI0
aI6
aI5
aI2
aI1
aI11
aI5
aI21
aI160
aI32
aI42
aI223
aI6
aI14
aI1
aI8
aI11
aI2
aI4
aI20
aI1
aI6
aI2
aI8
aI3
aI52
aI5
aI1
aI27
aI19
aI6
aI9
aI395
aI7
aI13
aI3
aI9
aI7
aI0
aI72
aI1
aI0
aI22
aI2
aI11
aI25
aI87
aI5
aI98
aI5
aI2
aI8
aI7
aI5
aI3
aI6
aI159
aI32
aI13
aI9
aI0
aI6
aI29
aI7
aI101
aI9
aI0
aI2
aI7
aI20
aI40
aI3
aI5
aI5
aI0
aI0
aI6
aI93
aI12
aI8
aI4
aI0
aI5
aI8
aI0
aI6
aI5
aI35
aI73
aI5
aI6
aI146
aI4
aI136
aI11
aI0
aI1
aI0
aI8
aI8
aI16
aI6
aI3
aI10
aI5
aI0
aI3
aI0
aI5
aI25
aI235
aI20
aI0
aI5
aI18
aI6
aI17
aI1
aI5
aI10
aI16
aI0
aI30
aI5
aI6
aI9
aI34
aI0
aI6
aI0
aI10
aI8
aI17
aI5
aI60
aI5
aI1
aI4
aI6
aI26
aI5
aI5
aI34
aI0
aI20
aI7
aI1
aI6
aI5
aI3
aI9
aI21
aI7
aI7
aI5
aI5
aI25
aI4
aI34
aI1
aI3
aI7
aI8
aI63
aI2
aI94
aI10
aI0
aI8
aI16
aI0
aI2
aI0
aI0
aI0
aI3
aI5
aI0
aI5
aI6
aI0
aI0
aI5
aI1
aI3
aI3
aI3
aI19
aI0
aI18
aI0
aI11
aI345
aI21
aI9
aI7
aI0
aI20
aI1
aI139
aI61
aI9
aI0
aI35
aI0
aI5
aI5
aI1
aI9
aI8
aI5
aI38
aI1
aI8
aI5
aI7
aI5
aI8
aI5
aI8
aI9
aI3
aI2
aI28
aI1
aI0
aI3
aI8
aI19
aI7
aI87
aI5
aI2
aI6
aI11
aI2
aI29
aI11
aI3
aI1
aI4
aI0
aI5
aI14
aI6
aI9
aI6
aI1
aI11
aI28
aI50
aI10
aI0
aI11
aI5
aI6
aI5
aI0
aI22
aI11
aI19
aI5
aI4
aI16
aI1
aI1
aI0
aI8
aI0
aI5
aI5
aI7
aI34
aI3
aI5
aI58
aI1
aI22
aI6
aI1
aI26
aI7
aI112
aI5
aI8
aI0
aI12
aI2
aI0
aI118
aI47
aI5
aI279
aI20
aI6
aI5
aI0
aI5
aI44
aI7
aI164
aI1
aI11
aI7
aI0
aI10
aI8
aI7
aI0
aI5
aI0
aI30
aI0
aI1
aI15
aI13
aI1
aI5
aI0
aI230
aI9
aI4
aI5
aI10
aI4
aI4
aI97
aI152
aI115
aI0
aI19
aI9
aI332
aI132
aI6
aI14
aI22
aI6
aI121
aI10
aI23
aI0
aI2
aI1
aI1
aI12
aI23
aI102
aI6
aI18
aI9
aI1
aI0
aI0
aI5
aI14
aI6
aI0
aI11
aI23
aI253
aI6
aI221
aI5
aI1
aI3
aI1853
aI3
aI4
aI6
aI0
aI2
aI1
aI17
aI11
aI3
aI8
aI7
aI79
aI42
aI7
aI7
aI5
aI12
aI4
aI0
aI0
aI4
aI2
aI73
aI5
aI19
aI5
aI0
aI0
aI80
aI14
aI0
aI0
aI7
aI17
aI57
aI6
aI6
aI0
aI5
aI19
aI7
aI6
aI5
aI6
aI0
aI23
aI6
aI2
aI6
aI8
aI2
aI17
aI6
aI12
aI6
aI41
aI7
aI3
aI6
aI3
aI0
aI0
aI1
aI103
aI4
aI4
aI5
aI21
aI0
aI17
aI14
aI7
aI9
aI7
aI0
aI3
aI111
aI2
aI8
aI11
aI5
aI0
aI10
aI17
aI9
aI0
aI0
aI49
aI4
aI6
aI24
aI26
aI1
aI15
aI2
aI1
aI0
aI1
aI5
aI11
aI23
aI5
aI58
aI47
aI5
aI2
aI9
aI7
aI5
aI6
aI5
aI12
aI331
aI15
aI0
aI53
aI145
aI19
aI0
aI6
aI12
aI4
aI69
aI0
aI8
aI3
aI5
aI11
aI151
aI5
aI5
aI0
aI3
aI55
aI7
aI6
aI0
aI0
aI5
aI1
aI0
aI242
aI8
aI6
aI3
aI7
aI12
aI2
aI0
aI0
aI4
aI6
aI28
aI33
aI82
aI8
aI178
aI5
aI20
aI28
aI3
aI0
aI23
aI10
aI18
aI17
aI19
aI2
aI7
aI5
aI0
aI0
aI2
aI8
aI14
aI0
aI16
aI4
aI0
aI6
aI3
aI0
aI5
aI5
aI6
aI9
aI5
aI1
aI91
aI0
aI7
aI1
aI14
aI5
aI0
aI2
aI17
aI15
aI10
aI2
aI134
aI0
aI34
aI9
aI0
aI11
aI6
aI7
aI6
aI5
aI0
aI6
aI6
aI3
aI130
aI6
aI16
aI2
aI5
aI3
aI5
aI6
aI0
aI1
aI1
aI0
aI7
aI0
aI39
aI5
aI4
aI16
aI5
aI75
aI7
aI1
aI6
aI2
aI7
aI6
aI4
aI7
aI97
aI0
aI6
aI19
aI6
aI4
aI0
aI0
aI15
aI7
aI292
aI0
aI5
aI6
aI8
aI9
aI1
aI6
aI6
aI0
aI39
aI23
aI298
aI8
aI6
aI5
aI5
aI5
aI62
aI6
aI12
aI19
aI5
aI7
aI15
aI5
aI469
aI6
aI14
aI0
aI5
aI3
aI24
aI0
aI0
aI6
aI14
aI5
aI5
aI6
aI5
aI7
aI5
aI5
aI57
aI6
aI5
aI1
aI5
aI8
aI5
aI4
aI4
aI0
aI22
aI13
aI2
aI14
aI1
aI9
aI10
aI10
aI37
aI4
aI0
aI9
aI5
aI118
aI21
aI7
aI5
aI3
aI1
aI5
aI5
aI149
aI14
aI57
aI30
aI0
aI13
aI0
aI3
aI5
aI33
aI11
aI10
aI39
aI20
aI6
aI101
aI9
aI6
aI8
aI0
aI5
aI3
aI6
aI2
aI14
aI50
aI10
aI9
aI5
aI56
aI41
aI47
aI0
aI3
aI5
aI19
aI9
aI7
aI2
aI3
aI0
aI6
aI7
aI5
aI7
aI100
aI19
aI0
aI13
aI5
aI38
aI0
aI1
aI17
aI1
aI7
aI0
aI8
aI0
aI10
aI6
aI0
aI6
aI25
aI6
aI4
aI4
aI14
aI28
aI16
aI15
aI14
aI5
aI2
aI8
aI123
aI11
aI1
aI9
aI73
aI48
aI2
aI54
aI0
aI2
aI7
aI3
aI18
aI5
aI0
aI0
aI110
aI0
aI0
aI9
aI6
aI8
aI5
aI6
aI1
aI38
aI17
aI2
aI10
aI5
aI0
aI6
aI135
aI12
aI17
aI120
aI3
aI6
aI2
aI5
aI13
aI19
aI4
aI1
aI6
aI1
aI12
aI3
aI28
aI8
aI8
aI9
aI5
aI11
aI5
aI0
aI229
aI5
aI3
aI5
aI7
aI0
aI4
aI16
aI224
aI3
aI3
aI5
aI1
aI34
aI8
aI16
aI6
aI13
aI0
aI89
aI5
aI0
aI1
aI2
aI5
aI0
aI5
aI20
aI0
aI0
aI2
aI14
aI14
aI4
aI5
aI0
aI6
aI5
aI5
aI9
aI5
aI0
aI5
aI8
aI25
aI1
aI5
aI5
aI0
aI6
aI5
aI0
aI6
aI18
aI3
aI5
aI6
aI3
aI3
aI11
aI7
aI6
aI8
aI5
aI10
aI8
aI2
aI101
aI6
aI56
aI11
aI5
aI0
aI0
aI41
aI63
aI5
aI5
aI5
aI1
aI11
aI5
aI4
aI33
aI123
aI0
aI6
aI8
aI6
aI5
aI9
aI5
aI3
aI5
aI10
aI5
aI6
aI9
aI5
aI6
aI7
aI7
aI79
aI1
aI27
aI83
aI7
aI19
aI5
aI12
aI54
aI1
aI0
aI11
aI0
aI42
aI6
aI7
aI0
aI10
aI63
aI7
aI9
aI3
aI3
aI11
aI36
aI0
aI6
aI3
aI3
aI2
aI0
aI101
aI0
aI159
aI0
aI0
aI9
aI0
aI13
aI16
aI8
aI0
aI0
aI8
aI11
aI0
aI0
aI0
aI11
aI2
aI8
aI2
aI5
aI136
aI1
aI6
aI10
aI30
aI3
aI29
aI11
aI6
aI4
aI15
aI3
aI0
aI24
aI0
aI11
aI6
aI0
aI3
aI1
aI11
aI36
aI5
aI1
aI8
aI7
aI33
aI0
aI7
aI8
aI5
aI14
aI0
aI1
aI0
aI16
aI0
aI100
aI5
aI5
aI0
aI0
aI1
aI0
aI10
aI20
aI22
aI0
aI0
aI15
aI9
aI14
aI11
aI0
aI10
aI7
aI15
aI5
aI148
aI6
aI10
aI9
aI6
aI0
aI5
aI5
aI7
aI1
aI41
aI1
aI6
aI4
aI0
aI6
aI5
aI144
aI0
aI6
aI119
aI2
aI6
aI0
aI299
aI10
aI8
aI2
aI13
aI0
aI6
aI0
aI11
aI9
aI12
aI0
aI5
aI5
aI5
aI7
aI6
aI5
aI6
aI7
aI20
aI2
aI5
aI8
aI14
aI0
aI0
aI2
aI9
aI36
aI8
aI0
aI1
aI3
aI4
aI3
aI5
aI6
aI0
aI14
aI4
aI2
aI204
aI2
aI11
aI18
aI1
aI5
aI49
aI5
aI0
aI34
aI3
aI33
aI9
aI6
aI5
aI145
aI6
aI5
aI6
aI6
aI10
aI20
aI0
aI1
aI0
aI12
aI9
aI2
aI3
aI2
aI5
aI6466
aI27
aI5
aI7
aI0
aI6
aI0
aI0
aI472
aI8
aI12
aI118
aI4
aI6
aI5
aI23
aI5
aI0
aI0
aI6
aI0
aI0
aI37
aI6
aI18
aI6
aI5
aI1
aI0
aI9
aI7
aI6
aI1
aI5
aI6
aI16
aI0
aI6
aI8
aI6
aI27
aI5
aI12
aI0
aI1
aI0
aI10
aI0
aI12
aI5
aI1
aI0
aI0
aI5
aI1
aI0
aI0
aI8
aI6
aI0
aI4
aI1
aI532
aI5
aI2
aI27
aI0
aI5
aI14
aI0
aI0
aI5
aI5
aI14
aI9
aI7
aI9
aI7
aI0
aI5
aI6
aI1
aI5
aI9
aI9
aI45
aI5
aI38
aI5
aI563
aI6
aI7
aI5
aI8
aI7
aI13
aI31
aI13
aI7
aI7
aI1
aI7
aI0
aI29
aI20
aI5
aI1
aI8
aI2
aI1
aI41
aI5
aI1
aI13
aI8
aI4
aI4
aI11
aI0
aI23
aI11
aI0
aI219
aI6
aI4
aI1
aI0
aI6
aI13
aI51
aI0
aI217
aI18
aI35
aI7
aI5
aI9
aI19
aI2
aI3
aI1
aI7
aI6
aI275
aI0
aI2
aI5
aI2
aI3
aI0
aI5
aI15
aI4
aI2
aI7
aI2
aI0
aI20
aI18
aI21
aI3
aI5
aI0
aI13
aI2
aI4
aI1
aI7
aI4
aI28
aI7
aI0
aI6
aI1
aI1
aI5
aI0
aI4
aI60
aI1
aI5
aI28
aI10
aI55
aI58
aI28
aI5
aI57
aI0
aI3
aI1
aI8
aI10
aI0
aI2
aI0
aI0
aI27
aI9
aI11
aI1
aI1
aI0
aI77
aI9
aI0
aI47
aI22
aI22
aI6
aI1
aI75
aI1
aI38
aI8
aI9
aI22
aI0
aI1
aI4
aI7
aI34
aI184
aI13
aI0
aI11
aI0
aI19
aI7
aI6
aI1
aI6
aI0
aI115
aI12
aI31
aI5
aI81
aI7
aI26
aI0
aI19
aI0
aI5
aI8
aI8
aI0
aI5
aI4
aI5
aI1
aI10
aI41
aI5
aI0
aI6
aI0
aI0
aI7
aI49
aI32
aI3
aI142
aI38
aI37
aI8
aI0
aI10
aI16
aI12
aI0
aI20
aI33
aI5
aI1
aI4
aI4
aI693
aI3
aI3
aI9
aI6
aI6
aI6
aI0
aI5
aI0
aI549
aI9
aI11
aI0
aI15
aI44
aI16
aI209
aI0
aI11
aI4
aI5
aI62
aI2
aI0
aI0
aI20
aI26
aI3
aI7
aI5
aI5
aI85
aI41
aI0
aI0
aI6
aI8
aI34
aI2
aI13
aI0
aI1
aI6
aI0
aI8
aI102
aI5
aI244
aI9
aI0
aI4
aI1
aI17
aI11
aI10
aI0
aI10
aI0
aI33
aI5
aI6
aI6
aI7
aI5
aI7
aI6
aI0
aI7
aI72
aI0
aI0
aI6
aI9
aI0
aI4
aI5
aI0
aI120
aI7
aI11
aI2
aI31
aI8
aI0
aI1
aI1
aI223
aI11
aI5
aI5
aI5
aI54
aI114
aI6
aI14
aI16
aI5
aI11
aI0
aI7
aI1
aI0
aI5
aI6
aI7
aI0
aI67
aI5
aI0
aI3
aI97
aI37
aI14
aI0
aI101
aI25
aI37
aI0
aI0
aI59
aI2
aI0
aI5
aI4
aI129
aI0
aI1
aI22
aI17
aI53
aI1
aI18
aI6
aI0
aI3
aI3
aI0
aI8
aI3
asb.